; ModuleID = 'output.bc'
source_filename = "llvm-link"
target datalayout = "e-m:e-i64:64-f80:128-n8:16:32:64-S128"
target triple = "x86_64-unknown-linux-gnu"

@str.th.xdinfo = private unnamed_addr constant [18 x i8] c"TH: info %3d %3d\0A\00", align 1
%struct.dcomplex = type { double, double }
%"class.std::basic_ostream" = type { i32 (...)**, %"class.std::basic_ios" }
%"class.std::basic_ios" = type { %"class.std::ios_base", %"class.std::basic_ostream"*, i8, i8, %"class.std::basic_streambuf"*, %"class.std::ctype"*, %"class.std::num_put"*, %"class.std::num_put"* }
%"class.std::ios_base" = type { i32 (...)**, i64, i64, i32, i32, i32, %"struct.std::ios_base::_Callback_list"*, %"struct.std::ios_base::_Words", [8 x %"struct.std::ios_base::_Words"], i32, %"struct.std::ios_base::_Words"*, %"class.std::locale" }
%"struct.std::ios_base::_Callback_list" = type { %"struct.std::ios_base::_Callback_list"*, void (i32, %"class.std::ios_base"*, i32)*, i32, i32 }
%"struct.std::ios_base::_Words" = type { i8*, i64 }
%"class.std::locale" = type { %"class.std::locale::_Impl"* }
%"class.std::locale::_Impl" = type { i32, %"class.std::locale::facet"**, i64, %"class.std::locale::facet"**, i8** }
%"class.std::locale::facet" = type <{ i32 (...)**, i32, [4 x i8] }>
%"class.std::basic_streambuf" = type { i32 (...)**, i8*, i8*, i8*, i8*, i8*, i8*, %"class.std::locale" }
%"class.std::ctype" = type <{ %"class.std::locale::facet.base", [4 x i8], %struct.__locale_struct*, i8, [7 x i8], i32*, i32*, i16*, i8, [256 x i8], [256 x i8], i8, [6 x i8] }>
%"class.std::locale::facet.base" = type <{ i32 (...)**, i32 }>
%struct.__locale_struct = type { [13 x %struct.__locale_data*], i16*, i32*, i32*, [13 x i8*] }
%struct.__locale_data = type opaque
%"class.std::num_put" = type { %"class.std::locale::facet.base", [4 x i8] }
%"struct.std::__atomic_base" = type { i8 }
%class.NoelleRuntime = type <{ %"class.MARC::ThreadPoolForCSingleQueue"*, i32, [4 x i8], %"class.std::vector.42", %"class.std::vector.47", %"class.std::vector.51", i32, i32, i32, [4 x i8] }>
%"class.MARC::ThreadPoolForCSingleQueue" = type { %"class.MARC::ThreadPoolForC.base", %"class.MARC::ThreadSafeMutexQueue.28" }
%"class.MARC::ThreadPoolForC.base" = type <{ %"class.MARC::ThreadPoolInterface", %"class.std::vector.23", i32 }>
%"class.MARC::ThreadPoolInterface" = type { i32 (...)**, %"struct.std::atomic", %"class.std::vector", %"class.std::vector.0", %"class.MARC::ThreadSafeMutexQueue", i8, %"class.std::mutex" }
%"struct.std::atomic" = type { %"struct.std::__atomic_base" }
%"class.std::vector" = type { %"struct.std::_Vector_base" }
%"struct.std::_Vector_base" = type { %"struct.std::_Vector_base<std::thread, std::allocator<std::thread> >::_Vector_impl" }
%"struct.std::_Vector_base<std::thread, std::allocator<std::thread> >::_Vector_impl" = type { %"class.std::thread"*, %"class.std::thread"*, %"class.std::thread"* }
%"class.std::thread" = type { %"class.std::thread::id" }
%"class.std::thread::id" = type { i64 }
%"class.std::vector.0" = type { %"struct.std::_Vector_base.1" }
%"struct.std::_Vector_base.1" = type { %"struct.std::_Vector_base<std::atomic<bool> *, std::allocator<std::atomic<bool> *> >::_Vector_impl" }
%"struct.std::_Vector_base<std::atomic<bool> *, std::allocator<std::atomic<bool> *> >::_Vector_impl" = type { %"struct.std::atomic"**, %"struct.std::atomic"**, %"struct.std::atomic"** }
%"class.MARC::ThreadSafeMutexQueue" = type { %"class.MARC::ThreadSafeQueue.base", %"class.std::mutex", %"class.std::condition_variable", %"class.std::condition_variable" }
%"class.MARC::ThreadSafeQueue.base" = type <{ i32 (...)**, %"class.std::queue", %"struct.std::atomic" }>
%"class.std::queue" = type { %"class.std::deque" }
%"class.std::deque" = type { %"class.std::_Deque_base" }
%"class.std::_Deque_base" = type { %"struct.std::_Deque_base<std::function<void ()>, std::allocator<std::function<void ()> > >::_Deque_impl" }
%"struct.std::_Deque_base<std::function<void ()>, std::allocator<std::function<void ()> > >::_Deque_impl" = type { %"class.std::function"**, i64, %"struct.std::_Deque_iterator", %"struct.std::_Deque_iterator" }
%"class.std::function" = type { %"class.std::_Function_base", void (%"union.std::_Any_data"*)* }
%"class.std::_Function_base" = type { %"union.std::_Any_data", i1 (%"union.std::_Any_data"*, %"union.std::_Any_data"*, i32)* }
%"union.std::_Any_data" = type { %"union.std::_Nocopy_types" }
%"union.std::_Nocopy_types" = type { { i64, i64 } }
%"struct.std::_Deque_iterator" = type { %"class.std::function"*, %"class.std::function"*, %"class.std::function"*, %"class.std::function"** }
%"class.std::condition_variable" = type { %union.pthread_cond_t }
%union.pthread_cond_t = type { %struct.__pthread_cond_s }
%struct.__pthread_cond_s = type { %"class.std::thread::id", %"class.std::thread::id", [2 x i32], [2 x i32], i32, i32, [2 x i32] }
%"class.std::mutex" = type { %"class.std::__mutex_base" }
%"class.std::__mutex_base" = type { %union.pthread_mutex_t }
%union.pthread_mutex_t = type { %struct.__pthread_mutex_s }
%struct.__pthread_mutex_s = type { i32, i32, i32, i32, i32, i16, i16, %struct.__pthread_internal_list }
%struct.__pthread_internal_list = type { %struct.__pthread_internal_list*, %struct.__pthread_internal_list* }
%"class.std::vector.23" = type { %"struct.std::_Vector_base.24" }
%"struct.std::_Vector_base.24" = type { %"struct.std::_Vector_base<MARC::ThreadCTask *, std::allocator<MARC::ThreadCTask *> >::_Vector_impl" }
%"struct.std::_Vector_base<MARC::ThreadCTask *, std::allocator<MARC::ThreadCTask *> >::_Vector_impl" = type { %"class.MARC::ThreadCTask"**, %"class.MARC::ThreadCTask"**, %"class.MARC::ThreadCTask"** }
%"class.MARC::ThreadCTask" = type <{ %"class.MARC::IThreadTask", void (i8*)*, i8*, %struct.cpu_set_t, i8, i8, [6 x i8], i64, i32, [4 x i8] }>
%"class.MARC::IThreadTask" = type { i32 (...)** }
%struct.cpu_set_t = type { [16 x i64] }
%"class.MARC::ThreadSafeMutexQueue.28" = type { %"class.MARC::ThreadSafeQueue.base.34", %"class.std::mutex", %"class.std::condition_variable", %"class.std::condition_variable" }
%"class.MARC::ThreadSafeQueue.base.34" = type <{ i32 (...)**, %"class.std::queue.30", %"struct.std::atomic" }>
%"class.std::queue.30" = type { %"class.std::deque.31" }
%"class.std::deque.31" = type { %"class.std::_Deque_base.32" }
%"class.std::_Deque_base.32" = type { %"struct.std::_Deque_base<MARC::ThreadCTask *, std::allocator<MARC::ThreadCTask *> >::_Deque_impl" }
%"struct.std::_Deque_base<MARC::ThreadCTask *, std::allocator<MARC::ThreadCTask *> >::_Deque_impl" = type { %"class.MARC::ThreadCTask"***, i64, %"struct.std::_Deque_iterator.33", %"struct.std::_Deque_iterator.33" }
%"struct.std::_Deque_iterator.33" = type { %"class.MARC::ThreadCTask"**, %"class.MARC::ThreadCTask"**, %"class.MARC::ThreadCTask"**, %"class.MARC::ThreadCTask"*** }
%"class.std::vector.42" = type { %"struct.std::_Vector_base.43" }
%"struct.std::_Vector_base.43" = type { %"struct.std::_Vector_base<unsigned int, std::allocator<unsigned int> >::_Vector_impl" }
%"struct.std::_Vector_base<unsigned int, std::allocator<unsigned int> >::_Vector_impl" = type { i32*, i32*, i32* }
%"class.std::vector.47" = type { %"struct.std::_Bvector_base" }
%"struct.std::_Bvector_base" = type { %"struct.std::_Bvector_base<std::allocator<bool> >::_Bvector_impl" }
%"struct.std::_Bvector_base<std::allocator<bool> >::_Bvector_impl" = type { %"struct.std::_Bvector_base<std::allocator<bool> >::_Bvector_impl_data" }
%"struct.std::_Bvector_base<std::allocator<bool> >::_Bvector_impl_data" = type { %"struct.std::_Bit_iterator", %"struct.std::_Bit_iterator", i64* }
%"struct.std::_Bit_iterator" = type { %"struct.std::_Bit_iterator_base.base", [4 x i8] }
%"struct.std::_Bit_iterator_base.base" = type <{ i64*, i32 }>
%"class.std::vector.51" = type { %"struct.std::_Vector_base.52" }
%"struct.std::_Vector_base.52" = type { %"struct.std::_Vector_base<DOALL_args_t *, std::allocator<DOALL_args_t *> >::_Vector_impl" }
%"struct.std::_Vector_base<DOALL_args_t *, std::allocator<DOALL_args_t *> >::_Vector_impl" = type { %struct.DOALL_args_t**, %struct.DOALL_args_t**, %struct.DOALL_args_t** }
%struct.DOALL_args_t = type { void (i8*, i64, i64, i64)*, i8*, i64, i64, i64, i32 }
%struct._IO_FILE = type { i32, i8*, i8*, i8*, i8*, i8*, i8*, i8*, i8*, i8*, i8*, i8*, %struct._IO_marker*, %struct._IO_FILE*, i32, i32, i64, i16, i8, [1 x i8], i8*, i64, %struct._IO_codecvt*, %struct._IO_wide_data*, %struct._IO_FILE*, i8*, i64, i32, [20 x i8] }
%struct._IO_marker = type opaque
%struct._IO_codecvt = type opaque
%struct._IO_wide_data = type opaque
%"class.MARC::ThreadPool" = type { %"class.MARC::ThreadPoolInterface", %"class.MARC::ThreadSafeMutexQueue.11" }
%"class.MARC::ThreadSafeMutexQueue.11" = type { %"class.MARC::ThreadSafeQueue.base.20", %"class.std::mutex", %"class.std::condition_variable", %"class.std::condition_variable" }
%"class.MARC::ThreadSafeQueue.base.20" = type <{ i32 (...)**, %"class.std::queue.13", %"struct.std::atomic" }>
%"class.std::queue.13" = type { %"class.std::deque.14" }
%"class.std::deque.14" = type { %"class.std::_Deque_base.15" }
%"class.std::_Deque_base.15" = type { %"struct.std::_Deque_base<std::unique_ptr<MARC::IThreadTask, std::default_delete<MARC::IThreadTask> >, std::allocator<std::unique_ptr<MARC::IThreadTask, std::default_delete<MARC::IThreadTask> > > >::_Deque_impl" }
%"struct.std::_Deque_base<std::unique_ptr<MARC::IThreadTask, std::default_delete<MARC::IThreadTask> >, std::allocator<std::unique_ptr<MARC::IThreadTask, std::default_delete<MARC::IThreadTask> > > >::_Deque_impl" = type { %"class.std::unique_ptr"**, i64, %"struct.std::_Deque_iterator.19", %"struct.std::_Deque_iterator.19" }
%"class.std::unique_ptr" = type { %"class.std::__uniq_ptr_impl" }
%"class.std::__uniq_ptr_impl" = type { %"class.std::tuple" }
%"class.std::tuple" = type { %"struct.std::_Tuple_impl" }
%"struct.std::_Tuple_impl" = type { %"struct.std::_Head_base.22" }
%"struct.std::_Head_base.22" = type { %"class.MARC::IThreadTask"* }
%"struct.std::_Deque_iterator.19" = type { %"class.std::unique_ptr"*, %"class.std::unique_ptr"*, %"class.std::unique_ptr"*, %"class.std::unique_ptr"** }
%"class.MARC::ThreadPoolForC" = type <{ %"class.MARC::ThreadPoolInterface", %"class.std::vector.23", i32, [4 x i8] }>
%"class.MARC::ThreadPoolForCMultiQueues" = type <{ %"class.MARC::ThreadPoolForC.base", [4 x i8], %"class.std::vector.35", i32, [4 x i8] }>
%"class.std::vector.35" = type { %"struct.std::_Vector_base.36" }
%"struct.std::_Vector_base.36" = type { %"struct.std::_Vector_base<MARC::ThreadSafeSpinLockQueue<MARC::ThreadCTask *> *, std::allocator<MARC::ThreadSafeSpinLockQueue<MARC::ThreadCTask *> *> >::_Vector_impl" }
%"struct.std::_Vector_base<MARC::ThreadSafeSpinLockQueue<MARC::ThreadCTask *> *, std::allocator<MARC::ThreadSafeSpinLockQueue<MARC::ThreadCTask *> *> >::_Vector_impl" = type { %"class.MARC::ThreadSafeSpinLockQueue"**, %"class.MARC::ThreadSafeSpinLockQueue"**, %"class.MARC::ThreadSafeSpinLockQueue"** }
%"class.MARC::ThreadSafeSpinLockQueue" = type { %"class.MARC::ThreadSafeQueue.base.34", i32 }
%struct.timeval = type { i64, i64 }
%struct.timezone = type { i32, i32 }
%"class.std::unique_lock" = type <{ %"class.std::mutex"*, i8, [7 x i8] }>
%union.pthread_attr_t = type { i64, [48 x i8] }
%"struct.std::thread::_State_impl" = type { %"class.MARC::IThreadTask", %"struct.std::thread::_Invoker" }
%"struct.std::thread::_Invoker" = type { %"class.std::tuple.138" }
%"class.std::tuple.138" = type { %"struct.std::_Tuple_impl.139" }
%"struct.std::_Tuple_impl.139" = type { %"struct.std::_Tuple_impl.140", %"struct.std::_Head_base.146" }
%"struct.std::_Tuple_impl.140" = type { %"struct.std::_Tuple_impl.141", %"struct.std::_Head_base.145" }
%"struct.std::_Tuple_impl.141" = type { %"struct.std::_Tuple_impl.142", %"struct.std::_Head_base.144" }
%"struct.std::_Tuple_impl.142" = type { %"struct.std::_Head_base.143" }
%"struct.std::_Head_base.143" = type { i32 }
%"struct.std::_Head_base.144" = type { %"struct.std::atomic"* }
%"struct.std::_Head_base.145" = type { %"class.MARC::ThreadPoolInterface"* }
%"struct.std::_Head_base.146" = type { void (%"class.MARC::ThreadPoolInterface"*, %"struct.std::atomic"*, i32)* }
%"class.MARC::ThreadSafeQueue.29" = type <{ i32 (...)**, %"class.std::queue.30", %"struct.std::atomic", [7 x i8] }>
%"class.MARC::ThreadSafeQueue" = type <{ i32 (...)**, %"class.std::queue", %"struct.std::atomic", [7 x i8] }>
%"class.MARC::ThreadSafeQueue.12" = type <{ i32 (...)**, %"class.std::queue.13", %"struct.std::atomic", [7 x i8] }>
%"class.std::__cxx11::basic_string" = type { %"struct.std::__cxx11::basic_string<char, std::char_traits<char>, std::allocator<char> >::_Alloc_hider", i64, %union.anon.59 }
%"struct.std::__cxx11::basic_string<char, std::char_traits<char>, std::allocator<char> >::_Alloc_hider" = type { i8* }
%union.anon.59 = type { i64, [8 x i8] }
%"class.MARC::ThreadSafeQueue.60" = type <{ i32 (...)**, %"class.std::queue.61", %"struct.std::atomic", [7 x i8] }>
%"class.std::queue.61" = type { %"class.std::deque.62" }
%"class.std::deque.62" = type { %"class.std::_Deque_base.63" }
%"class.std::_Deque_base.63" = type { %"struct.std::_Deque_base<signed char, std::allocator<signed char> >::_Deque_impl" }
%"struct.std::_Deque_base<signed char, std::allocator<signed char> >::_Deque_impl" = type { i8**, i64, %"struct.std::_Deque_iterator.67", %"struct.std::_Deque_iterator.67" }
%"struct.std::_Deque_iterator.67" = type { i8*, i8*, i8*, i8** }
%"class.MARC::ThreadSafeQueue.69" = type <{ i32 (...)**, %"class.std::queue.70", %"struct.std::atomic", [7 x i8] }>
%"class.std::queue.70" = type { %"class.std::deque.71" }
%"class.std::deque.71" = type { %"class.std::_Deque_base.72" }
%"class.std::_Deque_base.72" = type { %"struct.std::_Deque_base<short, std::allocator<short> >::_Deque_impl" }
%"struct.std::_Deque_base<short, std::allocator<short> >::_Deque_impl" = type { i16**, i64, %"struct.std::_Deque_iterator.76", %"struct.std::_Deque_iterator.76" }
%"struct.std::_Deque_iterator.76" = type { i16*, i16*, i16*, i16** }
%"class.MARC::ThreadSafeQueue.78" = type <{ i32 (...)**, %"class.std::queue.79", %"struct.std::atomic", [7 x i8] }>
%"class.std::queue.79" = type { %"class.std::deque.80" }
%"class.std::deque.80" = type { %"class.std::_Deque_base.81" }
%"class.std::_Deque_base.81" = type { %"struct.std::_Deque_base<int, std::allocator<int> >::_Deque_impl" }
%"struct.std::_Deque_base<int, std::allocator<int> >::_Deque_impl" = type { i32**, i64, %"struct.std::_Deque_iterator.85", %"struct.std::_Deque_iterator.85" }
%"struct.std::_Deque_iterator.85" = type { i32*, i32*, i32*, i32** }
%"class.MARC::ThreadSafeQueue.87" = type <{ i32 (...)**, %"class.std::queue.88", %"struct.std::atomic", [7 x i8] }>
%"class.std::queue.88" = type { %"class.std::deque.89" }
%"class.std::deque.89" = type { %"class.std::_Deque_base.90" }
%"class.std::_Deque_base.90" = type { %"struct.std::_Deque_base<long, std::allocator<long> >::_Deque_impl" }
%"struct.std::_Deque_base<long, std::allocator<long> >::_Deque_impl" = type { i64**, i64, %"struct.std::_Deque_iterator.94", %"struct.std::_Deque_iterator.94" }
%"struct.std::_Deque_iterator.94" = type { i64*, i64*, i64*, i64** }
%struct.NOELLE_HELIX_args_t = type { void (i8*, i8*, i8*, i8*, i64, i64, i64*)*, i8*, i8*, i8*, i8*, i64, i64, i64*, i32 }
%struct.NOELLE_DSWP_args_t = type { void (i8*, i8*)*, i8*, i8*, %union.pthread_mutex_t }
%"class.MARC::ThreadSafeLockFreeQueue" = type { %"class.MARC::ThreadSafeQueue.base.68", %"class.moodycamel::BlockingReaderWriterQueue" }
%"class.MARC::ThreadSafeQueue.base.68" = type <{ i32 (...)**, %"class.std::queue.61", %"struct.std::atomic" }>
%"class.moodycamel::BlockingReaderWriterQueue" = type { %"class.moodycamel::ReaderWriterQueue", %"class.moodycamel::spsc_sema::LightweightSemaphore" }
%"class.moodycamel::ReaderWriterQueue" = type <{ %"class.moodycamel::weak_atomic", [56 x i8], %"class.moodycamel::weak_atomic", i64, i8, i8, [6 x i8] }>
%"class.moodycamel::weak_atomic" = type { %"struct.std::atomic.96" }
%"struct.std::atomic.96" = type { %"struct.std::__atomic_base.97" }
%"struct.std::__atomic_base.97" = type { %"struct.moodycamel::ReaderWriterQueue<signed char, 512>::Block"* }
%"struct.moodycamel::ReaderWriterQueue<signed char, 512>::Block" = type { %"class.moodycamel::weak_atomic.122", i64, [48 x i8], %"class.moodycamel::weak_atomic.122", i64, [48 x i8], %"class.moodycamel::weak_atomic", i8*, i64, i8* }
%"class.moodycamel::weak_atomic.122" = type { %"class.std::thread" }
%"class.moodycamel::spsc_sema::LightweightSemaphore" = type { %"class.moodycamel::weak_atomic.122", %"class.moodycamel::spsc_sema::Semaphore" }
%"class.moodycamel::spsc_sema::Semaphore" = type { %union.sem_t }
%union.sem_t = type { i64, [24 x i8] }
%"class.MARC::ThreadSafeLockFreeQueue.101" = type { %"class.MARC::ThreadSafeQueue.base.77", %"class.moodycamel::BlockingReaderWriterQueue.102" }
%"class.MARC::ThreadSafeQueue.base.77" = type <{ i32 (...)**, %"class.std::queue.70", %"struct.std::atomic" }>
%"class.moodycamel::BlockingReaderWriterQueue.102" = type { %"class.moodycamel::ReaderWriterQueue.103", %"class.moodycamel::spsc_sema::LightweightSemaphore" }
%"class.moodycamel::ReaderWriterQueue.103" = type <{ %"class.moodycamel::weak_atomic.104", [56 x i8], %"class.moodycamel::weak_atomic.104", i64, i8, i8, [6 x i8] }>
%"class.moodycamel::weak_atomic.104" = type { %"struct.std::atomic.105" }
%"struct.std::atomic.105" = type { %"struct.std::__atomic_base.106" }
%"struct.std::__atomic_base.106" = type { %"struct.moodycamel::ReaderWriterQueue<short, 512>::Block"* }
%"struct.moodycamel::ReaderWriterQueue<short, 512>::Block" = type { %"class.moodycamel::weak_atomic.122", i64, [48 x i8], %"class.moodycamel::weak_atomic.122", i64, [48 x i8], %"class.moodycamel::weak_atomic.104", i8*, i64, i8* }
%"class.MARC::ThreadSafeLockFreeQueue.108" = type { %"class.MARC::ThreadSafeQueue.base.86", %"class.moodycamel::BlockingReaderWriterQueue.109" }
%"class.MARC::ThreadSafeQueue.base.86" = type <{ i32 (...)**, %"class.std::queue.79", %"struct.std::atomic" }>
%"class.moodycamel::BlockingReaderWriterQueue.109" = type { %"class.moodycamel::ReaderWriterQueue.110", %"class.moodycamel::spsc_sema::LightweightSemaphore" }
%"class.moodycamel::ReaderWriterQueue.110" = type <{ %"class.moodycamel::weak_atomic.111", [56 x i8], %"class.moodycamel::weak_atomic.111", i64, i8, i8, [6 x i8] }>
%"class.moodycamel::weak_atomic.111" = type { %"struct.std::atomic.112" }
%"struct.std::atomic.112" = type { %"struct.std::__atomic_base.113" }
%"struct.std::__atomic_base.113" = type { %"struct.moodycamel::ReaderWriterQueue<int, 512>::Block"* }
%"struct.moodycamel::ReaderWriterQueue<int, 512>::Block" = type { %"class.moodycamel::weak_atomic.122", i64, [48 x i8], %"class.moodycamel::weak_atomic.122", i64, [48 x i8], %"class.moodycamel::weak_atomic.111", i8*, i64, i8* }
%"class.MARC::ThreadSafeLockFreeQueue.115" = type { %"class.MARC::ThreadSafeQueue.base.95", %"class.moodycamel::BlockingReaderWriterQueue.116" }
%"class.MARC::ThreadSafeQueue.base.95" = type <{ i32 (...)**, %"class.std::queue.88", %"struct.std::atomic" }>
%"class.moodycamel::BlockingReaderWriterQueue.116" = type { %"class.moodycamel::ReaderWriterQueue.117", %"class.moodycamel::spsc_sema::LightweightSemaphore" }
%"class.moodycamel::ReaderWriterQueue.117" = type <{ %"class.moodycamel::weak_atomic.118", [56 x i8], %"class.moodycamel::weak_atomic.118", i64, i8, i8, [6 x i8] }>
%"class.moodycamel::weak_atomic.118" = type { %"struct.std::atomic.119" }
%"struct.std::atomic.119" = type { %"struct.std::__atomic_base.120" }
%"struct.std::__atomic_base.120" = type { %"struct.moodycamel::ReaderWriterQueue<long, 512>::Block"* }
%"struct.moodycamel::ReaderWriterQueue<long, 512>::Block" = type { %"class.moodycamel::weak_atomic.122", i64, [48 x i8], %"class.moodycamel::weak_atomic.122", i64, [48 x i8], %"class.moodycamel::weak_atomic.118", i8*, i64, i8* }
%"class.std::bad_alloc" = type { %"class.MARC::IThreadTask" }

$_ZN4MARC11IThreadTaskD2Ev = comdat any

$_ZN4MARC11ThreadCTaskD0Ev = comdat any

$_ZN4MARC20ThreadSafeMutexQueueISt10unique_ptrINS_11IThreadTaskESt14default_deleteIS2_EEE7waitPopERS5_ = comdat any

$_ZN4MARC20ThreadSafeMutexQueueIPNS_11ThreadCTaskEE4pushES2_ = comdat any

$_ZNSt6vectorISt6threadSaIS0_EE12emplace_backIJPFvPN4MARC19ThreadPoolInterfaceEPSt6atomicIbEjES6_RS9_RiEEEvDpOT_ = comdat any

$_ZNSt6vectorISt6threadSaIS0_EE17_M_realloc_insertIJPFvPN4MARC19ThreadPoolInterfaceEPSt6atomicIbEjES6_RS9_RiEEEvN9__gnu_cxx17__normal_iteratorIPS0_S2_EEDpOT_ = comdat any

$__clang_call_terminate = comdat any

$_ZNSt6thread11_State_implINS_8_InvokerISt5tupleIJPFvPN4MARC19ThreadPoolInterfaceEPSt6atomicIbEjES5_S8_iEEEEED0Ev = comdat any

$_ZNSt6thread11_State_implINS_8_InvokerISt5tupleIJPFvPN4MARC19ThreadPoolInterfaceEPSt6atomicIbEjES5_S8_iEEEEE6_M_runEv = comdat any

$_ZNSt5dequeIPN4MARC11ThreadCTaskESaIS2_EE17_M_reallocate_mapEmb = comdat any

$_ZN4MARC20ThreadSafeMutexQueueIPNS_11ThreadCTaskEE7waitPopERS2_ = comdat any

$_ZN4MARC23ThreadSafeSpinLockQueueIPNS_11ThreadCTaskEE7waitPopERS2_ = comdat any

$_ZN4MARC20ThreadSafeMutexQueueIPNS_11ThreadCTaskEED2Ev = comdat any

$_ZN4MARC20ThreadSafeMutexQueueISt8functionIFvvEEE7waitPopERS3_ = comdat any

$_ZN4MARC20ThreadSafeMutexQueueISt8functionIFvvEEED2Ev = comdat any

$_ZNSt6vectorIPSt6atomicIbESaIS2_EED2Ev = comdat any

$_ZNSt6vectorISt6threadSaIS0_EED2Ev = comdat any

$_ZNSt5dequeISt8functionIFvvEESaIS2_EED2Ev = comdat any

$_ZN4MARC15ThreadSafeQueueISt8functionIFvvEEED2Ev = comdat any

$_ZNSt5dequeISt8functionIFvvEESaIS2_EE19_M_destroy_data_auxESt15_Deque_iteratorIS2_RS2_PS2_ES8_ = comdat any

$_ZNSt11_Deque_baseISt8functionIFvvEESaIS2_EED2Ev = comdat any

$_ZNK4MARC15ThreadSafeQueueISt8functionIFvvEEE7isValidEv = comdat any

$_ZN4MARC15ThreadSafeQueueISt8functionIFvvEEE10invalidateEv = comdat any

$_ZN4MARC20ThreadSafeMutexQueueISt8functionIFvvEEE6tryPopERS3_ = comdat any

$_ZN4MARC20ThreadSafeMutexQueueISt8functionIFvvEEE7waitPopEv = comdat any

$_ZN4MARC20ThreadSafeMutexQueueISt8functionIFvvEEE4pushES3_ = comdat any

$_ZN4MARC20ThreadSafeMutexQueueISt8functionIFvvEEE8waitPushES3_l = comdat any

$_ZN4MARC20ThreadSafeMutexQueueISt8functionIFvvEEE5clearEv = comdat any

$_ZNK4MARC20ThreadSafeMutexQueueISt8functionIFvvEEE5emptyEv = comdat any

$_ZNK4MARC20ThreadSafeMutexQueueISt8functionIFvvEEE4sizeEv = comdat any

$_ZN4MARC20ThreadSafeMutexQueueISt8functionIFvvEEE10invalidateEv = comdat any

$_ZN4MARC20ThreadSafeMutexQueueISt8functionIFvvEEE22internal_pushAndNotifyERS3_ = comdat any

$_ZNSt5dequeISt8functionIFvvEESaIS2_EE17_M_reallocate_mapEmb = comdat any

$_ZN4MARC15ThreadSafeQueueISt8functionIFvvEEE12internal_popERS3_ = comdat any

$_ZN4MARC15ThreadSafeQueueIPNS_11ThreadCTaskEED2Ev = comdat any

$_ZNK4MARC15ThreadSafeQueueIPNS_11ThreadCTaskEE7isValidEv = comdat any

$_ZN4MARC15ThreadSafeQueueIPNS_11ThreadCTaskEE10invalidateEv = comdat any

$_ZN4MARC20ThreadSafeMutexQueueIPNS_11ThreadCTaskEE6tryPopERS2_ = comdat any

$_ZN4MARC20ThreadSafeMutexQueueIPNS_11ThreadCTaskEE7waitPopEv = comdat any

$_ZN4MARC20ThreadSafeMutexQueueIPNS_11ThreadCTaskEE8waitPushES2_l = comdat any

$_ZN4MARC20ThreadSafeMutexQueueIPNS_11ThreadCTaskEE5clearEv = comdat any

$_ZNK4MARC20ThreadSafeMutexQueueIPNS_11ThreadCTaskEE5emptyEv = comdat any

$_ZNK4MARC20ThreadSafeMutexQueueIPNS_11ThreadCTaskEE4sizeEv = comdat any

$_ZN4MARC20ThreadSafeMutexQueueIPNS_11ThreadCTaskEE10invalidateEv = comdat any

$_ZNSt11_Deque_baseIPN4MARC11ThreadCTaskESaIS2_EE17_M_initialize_mapEm = comdat any

$_ZNSt11_Deque_baseISt8functionIFvvEESaIS2_EE17_M_initialize_mapEm = comdat any

$_ZNSt11_Deque_baseISt10unique_ptrIN4MARC11IThreadTaskESt14default_deleteIS2_EESaIS5_EE17_M_initialize_mapEm = comdat any

$_ZN4MARC20ThreadSafeMutexQueueISt10unique_ptrINS_11IThreadTaskESt14default_deleteIS2_EEED2Ev = comdat any

$_ZNSt5dequeISt10unique_ptrIN4MARC11IThreadTaskESt14default_deleteIS2_EESaIS5_EED2Ev = comdat any

$_ZN4MARC15ThreadSafeQueueISt10unique_ptrINS_11IThreadTaskESt14default_deleteIS2_EEED2Ev = comdat any

$_ZN4MARC20ThreadSafeMutexQueueISt10unique_ptrINS_11IThreadTaskESt14default_deleteIS2_EEE6tryPopERS5_ = comdat any

$_ZN4MARC20ThreadSafeMutexQueueISt10unique_ptrINS_11IThreadTaskESt14default_deleteIS2_EEE7waitPopEv = comdat any

$_ZN4MARC20ThreadSafeMutexQueueISt10unique_ptrINS_11IThreadTaskESt14default_deleteIS2_EEE4pushES5_ = comdat any

$_ZN4MARC20ThreadSafeMutexQueueISt10unique_ptrINS_11IThreadTaskESt14default_deleteIS2_EEE8waitPushES5_l = comdat any

$_ZN4MARC20ThreadSafeMutexQueueISt10unique_ptrINS_11IThreadTaskESt14default_deleteIS2_EEE5clearEv = comdat any

$_ZNK4MARC20ThreadSafeMutexQueueISt10unique_ptrINS_11IThreadTaskESt14default_deleteIS2_EEE5emptyEv = comdat any

$_ZNK4MARC20ThreadSafeMutexQueueISt10unique_ptrINS_11IThreadTaskESt14default_deleteIS2_EEE4sizeEv = comdat any

$_ZNK4MARC15ThreadSafeQueueISt10unique_ptrINS_11IThreadTaskESt14default_deleteIS2_EEE7isValidEv = comdat any

$_ZN4MARC20ThreadSafeMutexQueueISt10unique_ptrINS_11IThreadTaskESt14default_deleteIS2_EEE10invalidateEv = comdat any

$_ZNSt5dequeISt10unique_ptrIN4MARC11IThreadTaskESt14default_deleteIS2_EESaIS5_EE17_M_reallocate_mapEmb = comdat any

$_ZN4MARC15ThreadSafeQueueISt10unique_ptrINS_11IThreadTaskESt14default_deleteIS2_EEE10invalidateEv = comdat any

$_ZN4MARC23ThreadSafeSpinLockQueueIPNS_11ThreadCTaskEE6tryPopERS2_ = comdat any

$_ZN4MARC23ThreadSafeSpinLockQueueIPNS_11ThreadCTaskEE7waitPopEv = comdat any

$_ZN4MARC23ThreadSafeSpinLockQueueIPNS_11ThreadCTaskEE4pushES2_ = comdat any

$_ZN4MARC23ThreadSafeSpinLockQueueIPNS_11ThreadCTaskEE8waitPushES2_l = comdat any

$_ZN4MARC23ThreadSafeSpinLockQueueIPNS_11ThreadCTaskEE5clearEv = comdat any

$_ZNK4MARC23ThreadSafeSpinLockQueueIPNS_11ThreadCTaskEE5emptyEv = comdat any

$_ZNK4MARC23ThreadSafeSpinLockQueueIPNS_11ThreadCTaskEE4sizeEv = comdat any

$_ZStplIcSt11char_traitsIcESaIcEENSt7__cxx1112basic_stringIT_T0_T1_EEPKS5_RKS8_ = comdat any

$_ZNSt6vectorIbSaIbEE13_M_insert_auxESt13_Bit_iteratorb = comdat any

$_ZN4MARC23ThreadSafeLockFreeQueueIaEC2Ev = comdat any

$_ZN4MARC23ThreadSafeLockFreeQueueIsEC2Ev = comdat any

$_ZN4MARC23ThreadSafeLockFreeQueueIiEC2Ev = comdat any

$_ZN4MARC23ThreadSafeLockFreeQueueIlEC2Ev = comdat any

$_ZN4MARC23ThreadSafeLockFreeQueueIaED2Ev = comdat any

$_ZN4MARC23ThreadSafeLockFreeQueueIsED2Ev = comdat any

$_ZN4MARC23ThreadSafeLockFreeQueueIiED2Ev = comdat any

$_ZN4MARC23ThreadSafeLockFreeQueueIlED2Ev = comdat any

$_ZNK4MARC15ThreadSafeQueueIlE7isValidEv = comdat any

$_ZN4MARC15ThreadSafeQueueIlE10invalidateEv = comdat any

$_ZN4MARC23ThreadSafeLockFreeQueueIlE6tryPopERl = comdat any

$_ZN4MARC23ThreadSafeLockFreeQueueIlE7waitPopERl = comdat any

$_ZN4MARC23ThreadSafeLockFreeQueueIlE7waitPopEv = comdat any

$_ZN4MARC23ThreadSafeLockFreeQueueIlE4pushEl = comdat any

$_ZN4MARC23ThreadSafeLockFreeQueueIlE8waitPushEll = comdat any

$_ZN4MARC23ThreadSafeLockFreeQueueIlE5clearEv = comdat any

$_ZNK4MARC23ThreadSafeLockFreeQueueIlE5emptyEv = comdat any

$_ZNK4MARC23ThreadSafeLockFreeQueueIlE4sizeEv = comdat any

$_ZN10moodycamel9spsc_sema20LightweightSemaphore23waitWithPartialSpinningEl = comdat any

$_ZN10moodycamel17ReaderWriterQueueIlLm512EE11try_dequeueIlEEbRT_ = comdat any

$_ZN10moodycamel17ReaderWriterQueueIlLm512EE13inner_enqueueILNS1_14AllocationModeE0EJRKlEEEbDpOT0_ = comdat any

$_ZNK4MARC15ThreadSafeQueueIiE7isValidEv = comdat any

$_ZN4MARC15ThreadSafeQueueIiE10invalidateEv = comdat any

$_ZN4MARC23ThreadSafeLockFreeQueueIiE6tryPopERi = comdat any

$_ZN4MARC23ThreadSafeLockFreeQueueIiE7waitPopERi = comdat any

$_ZN4MARC23ThreadSafeLockFreeQueueIiE7waitPopEv = comdat any

$_ZN4MARC23ThreadSafeLockFreeQueueIiE4pushEi = comdat any

$_ZN4MARC23ThreadSafeLockFreeQueueIiE8waitPushEil = comdat any

$_ZN4MARC23ThreadSafeLockFreeQueueIiE5clearEv = comdat any

$_ZNK4MARC23ThreadSafeLockFreeQueueIiE5emptyEv = comdat any

$_ZNK4MARC23ThreadSafeLockFreeQueueIiE4sizeEv = comdat any

$_ZN10moodycamel17ReaderWriterQueueIiLm512EE11try_dequeueIiEEbRT_ = comdat any

$_ZN10moodycamel17ReaderWriterQueueIiLm512EE13inner_enqueueILNS1_14AllocationModeE0EJRKiEEEbDpOT0_ = comdat any

$_ZNK4MARC15ThreadSafeQueueIsE7isValidEv = comdat any

$_ZN4MARC15ThreadSafeQueueIsE10invalidateEv = comdat any

$_ZN4MARC23ThreadSafeLockFreeQueueIsE6tryPopERs = comdat any

$_ZN4MARC23ThreadSafeLockFreeQueueIsE7waitPopERs = comdat any

$_ZN4MARC23ThreadSafeLockFreeQueueIsE7waitPopEv = comdat any

$_ZN4MARC23ThreadSafeLockFreeQueueIsE4pushEs = comdat any

$_ZN4MARC23ThreadSafeLockFreeQueueIsE8waitPushEsl = comdat any

$_ZN4MARC23ThreadSafeLockFreeQueueIsE5clearEv = comdat any

$_ZNK4MARC23ThreadSafeLockFreeQueueIsE5emptyEv = comdat any

$_ZNK4MARC23ThreadSafeLockFreeQueueIsE4sizeEv = comdat any

$_ZN10moodycamel17ReaderWriterQueueIsLm512EE11try_dequeueIsEEbRT_ = comdat any

$_ZN10moodycamel17ReaderWriterQueueIsLm512EE13inner_enqueueILNS1_14AllocationModeE0EJRKsEEEbDpOT0_ = comdat any

$_ZNK4MARC15ThreadSafeQueueIaE7isValidEv = comdat any

$_ZN4MARC15ThreadSafeQueueIaE10invalidateEv = comdat any

$_ZN4MARC23ThreadSafeLockFreeQueueIaE6tryPopERa = comdat any

$_ZN4MARC23ThreadSafeLockFreeQueueIaE7waitPopERa = comdat any

$_ZN4MARC23ThreadSafeLockFreeQueueIaE7waitPopEv = comdat any

$_ZN4MARC23ThreadSafeLockFreeQueueIaE4pushEa = comdat any

$_ZN4MARC23ThreadSafeLockFreeQueueIaE8waitPushEal = comdat any

$_ZN4MARC23ThreadSafeLockFreeQueueIaE5clearEv = comdat any

$_ZNK4MARC23ThreadSafeLockFreeQueueIaE5emptyEv = comdat any

$_ZNK4MARC23ThreadSafeLockFreeQueueIaE4sizeEv = comdat any

$_ZN10moodycamel17ReaderWriterQueueIaLm512EE11try_dequeueIaEEbRT_ = comdat any

$_ZN10moodycamel17ReaderWriterQueueIaLm512EE13inner_enqueueILNS1_14AllocationModeE0EJRKaEEEbDpOT0_ = comdat any

$_ZNSt11_Deque_baseIlSaIlEE17_M_initialize_mapEm = comdat any

$_ZNSt11_Deque_baseIiSaIiEE17_M_initialize_mapEm = comdat any

$_ZNSt11_Deque_baseIsSaIsEE17_M_initialize_mapEm = comdat any

$_ZNSt11_Deque_baseIaSaIaEE17_M_initialize_mapEm = comdat any

$_ZTIN4MARC11IThreadTaskE = comdat any

$_ZTSN4MARC11IThreadTaskE = comdat any

$_ZTIN4MARC19ThreadPoolInterfaceE = comdat any

$_ZTSN4MARC19ThreadPoolInterfaceE = comdat any

$_ZTVNSt6thread11_State_implINS_8_InvokerISt5tupleIJPFvPN4MARC19ThreadPoolInterfaceEPSt6atomicIbEjES5_S8_iEEEEEE = comdat any

$_ZTINSt6thread11_State_implINS_8_InvokerISt5tupleIJPFvPN4MARC19ThreadPoolInterfaceEPSt6atomicIbEjES5_S8_iEEEEEE = comdat any

$_ZTSNSt6thread11_State_implINS_8_InvokerISt5tupleIJPFvPN4MARC19ThreadPoolInterfaceEPSt6atomicIbEjES5_S8_iEEEEEE = comdat any

$_ZTIN4MARC14ThreadPoolForCE = comdat any

$_ZTSN4MARC14ThreadPoolForCE = comdat any

$_ZTVN4MARC14ThreadPoolForCE = comdat any

$_ZTVN4MARC19ThreadPoolInterfaceE = comdat any

$_ZTVN4MARC20ThreadSafeMutexQueueISt8functionIFvvEEEE = comdat any

$_ZTVN4MARC15ThreadSafeQueueISt8functionIFvvEEEE = comdat any

$_ZTIN4MARC15ThreadSafeQueueISt8functionIFvvEEEE = comdat any

$_ZTSN4MARC15ThreadSafeQueueISt8functionIFvvEEEE = comdat any

$_ZTIN4MARC20ThreadSafeMutexQueueISt8functionIFvvEEEE = comdat any

$_ZTSN4MARC20ThreadSafeMutexQueueISt8functionIFvvEEEE = comdat any

$_ZTVN4MARC20ThreadSafeMutexQueueIPNS_11ThreadCTaskEEE = comdat any

$_ZTVN4MARC15ThreadSafeQueueIPNS_11ThreadCTaskEEE = comdat any

$_ZTIN4MARC15ThreadSafeQueueIPNS_11ThreadCTaskEEE = comdat any

$_ZTSN4MARC15ThreadSafeQueueIPNS_11ThreadCTaskEEE = comdat any

$_ZTIN4MARC20ThreadSafeMutexQueueIPNS_11ThreadCTaskEEE = comdat any

$_ZTSN4MARC20ThreadSafeMutexQueueIPNS_11ThreadCTaskEEE = comdat any

$_ZTVN4MARC15ThreadSafeQueueISt10unique_ptrINS_11IThreadTaskESt14default_deleteIS2_EEEE = comdat any

$_ZTVN4MARC20ThreadSafeMutexQueueISt10unique_ptrINS_11IThreadTaskESt14default_deleteIS2_EEEE = comdat any

$_ZTIN4MARC20ThreadSafeMutexQueueISt10unique_ptrINS_11IThreadTaskESt14default_deleteIS2_EEEE = comdat any

$_ZTSN4MARC20ThreadSafeMutexQueueISt10unique_ptrINS_11IThreadTaskESt14default_deleteIS2_EEEE = comdat any

$_ZTIN4MARC15ThreadSafeQueueISt10unique_ptrINS_11IThreadTaskESt14default_deleteIS2_EEEE = comdat any

$_ZTSN4MARC15ThreadSafeQueueISt10unique_ptrINS_11IThreadTaskESt14default_deleteIS2_EEEE = comdat any

$_ZTVN4MARC23ThreadSafeSpinLockQueueIPNS_11ThreadCTaskEEE = comdat any

$_ZTIN4MARC23ThreadSafeSpinLockQueueIPNS_11ThreadCTaskEEE = comdat any

$_ZTSN4MARC23ThreadSafeSpinLockQueueIPNS_11ThreadCTaskEEE = comdat any

$_ZTVN4MARC23ThreadSafeLockFreeQueueIlEE = comdat any

$_ZTVN4MARC15ThreadSafeQueueIlEE = comdat any

$_ZTIN4MARC15ThreadSafeQueueIlEE = comdat any

$_ZTSN4MARC15ThreadSafeQueueIlEE = comdat any

$_ZTIN4MARC23ThreadSafeLockFreeQueueIlEE = comdat any

$_ZTSN4MARC23ThreadSafeLockFreeQueueIlEE = comdat any

$_ZTVN4MARC23ThreadSafeLockFreeQueueIiEE = comdat any

$_ZTVN4MARC15ThreadSafeQueueIiEE = comdat any

$_ZTIN4MARC15ThreadSafeQueueIiEE = comdat any

$_ZTSN4MARC15ThreadSafeQueueIiEE = comdat any

$_ZTIN4MARC23ThreadSafeLockFreeQueueIiEE = comdat any

$_ZTSN4MARC23ThreadSafeLockFreeQueueIiEE = comdat any

$_ZTVN4MARC23ThreadSafeLockFreeQueueIsEE = comdat any

$_ZTVN4MARC15ThreadSafeQueueIsEE = comdat any

$_ZTIN4MARC15ThreadSafeQueueIsEE = comdat any

$_ZTSN4MARC15ThreadSafeQueueIsEE = comdat any

$_ZTIN4MARC23ThreadSafeLockFreeQueueIsEE = comdat any

$_ZTSN4MARC23ThreadSafeLockFreeQueueIsEE = comdat any

$_ZTVN4MARC23ThreadSafeLockFreeQueueIaEE = comdat any

$_ZTVN4MARC15ThreadSafeQueueIaEE = comdat any

$_ZTIN4MARC15ThreadSafeQueueIaEE = comdat any

$_ZTSN4MARC15ThreadSafeQueueIaEE = comdat any

$_ZTIN4MARC23ThreadSafeLockFreeQueueIaEE = comdat any

$_ZTSN4MARC23ThreadSafeLockFreeQueueIaEE = comdat any

@fftblock = common dso_local local_unnamed_addr global i32 0, align 4
@fftblockpad = common dso_local local_unnamed_addr global i32 0, align 4
@elapsed = common dso_local local_unnamed_addr global [64 x double] zeroinitializer, align 16
@start = common dso_local local_unnamed_addr global [64 x double] zeroinitializer, align 16
@dims.2.0 = internal unnamed_addr global i1 false, align 8
@dims.2.1 = internal unnamed_addr global i1 false, align 8
@dims.2.2 = internal unnamed_addr global i1 false, align 8
@zstart.2 = internal unnamed_addr global i1 false, align 4
@ystart.2 = internal unnamed_addr global i1 false, align 4
@xstart.2 = internal unnamed_addr global i1 false, align 4
@main.indexmap = internal unnamed_addr global [256 x [256 x [512 x i32]]] zeroinitializer, align 16
@ex = internal unnamed_addr global [1966081 x double] zeroinitializer, align 16
@dims.0.0 = internal unnamed_addr global i1 false, align 16
@niter = internal unnamed_addr global i1 false, align 4
@dims.1.2 = internal unnamed_addr global i1 false, align 8
@dims.1.0 = internal unnamed_addr global i1 false, align 16
@dims.1.1 = internal unnamed_addr global i1 false, align 16
@dims.0.2 = internal unnamed_addr global i1 false, align 8
@dims.0.1 = internal unnamed_addr global i1 false, align 16
@xstart.0 = internal unnamed_addr global i1 false, align 4
@xend.0 = internal unnamed_addr global i1 false, align 4
@ystart.0 = internal unnamed_addr global i1 false, align 4
@yend.0 = internal unnamed_addr global i1 false, align 4
@zstart.0 = internal unnamed_addr global i1 false, align 4
@zend.0 = internal unnamed_addr global i1 false, align 4
@main.u0 = internal unnamed_addr global [256 x [256 x [512 x %struct.dcomplex]]] zeroinitializer, align 16
@main.u1 = internal unnamed_addr global [256 x [256 x [512 x %struct.dcomplex]]] zeroinitializer, align 16
@main.u2 = internal unnamed_addr global [256 x [256 x [512 x %struct.dcomplex]]] zeroinitializer, align 16
@sums = internal unnamed_addr global [21 x %struct.dcomplex] zeroinitializer, align 16
@.str.14 = private unnamed_addr constant [40 x i8] c"T = %5d     Checksum = %22.12e %22.12e\0A\00", align 1
@__const.verify.vdata_real_b = private unnamed_addr constant [21 x double] [double 0.000000e+00, double 0x40802E1D67491D27, double 0x40801B9DF5E01838, double 0x408015209C2AC008, double 0x408011E72B556FFE, double 0x40800FB38AA32FE6, double 0x40800DF0531A9C48, double 0x40800C700989200D, double 0x40800B20F5210ADA, double 0x408009FA001E667B, double 0x408008F54B8BB893, double 0x4080080E66C1709C, double 0x40800741A55F37AD, double 0x4080068BDAC33674, double 0x408005EA3C919C43, double 0x4080055A545A3920, double 0x408004D9F6B6B8E1, double 0x408004673C213244, double 0x408004007A3FD0EA, double 0x408003A43D5F793B, double 0x40800351422D2EDF], align 16
@__const.verify.vdata_imag_b = private unnamed_addr constant [21 x double] [double 0.000000e+00, double 0x407FBC7C4BF0AFB0, double 0x407FCD32F7994D45, double 0x407FD9EF2BAE169A, double 0x407FE1A32DF83794, double 0x407FE65CD1D86E4E, double 0x407FE9844F14C8E1, double 0x407FEBD8BF0DD370, double 0x407FEDB8F6EE292B, double 0x407FEF52DA70C18D, double 0x407FF0BC8A6C6119, double 0x407FF200FF33D23F, double 0x407FF3261FE7F7AD, double 0x407FF42F9BEB8DC0, double 0x407FF5203263B154, double 0x407FF5FA3C741F6E, double 0x407FF6BFE1A61501, double 0x407FF77327A3F7B0, double 0x407FF815F3F1C1DE, double 0x407FF8AA099402A0, double 0x407FF93106A352EE], align 16
@str.1 = private unnamed_addr constant [27 x i8] c"Result verification failed\00", align 1
@str.2 = private unnamed_addr constant [31 x i8] c"Result verification successful\00", align 1
@.str.17 = private unnamed_addr constant [13 x i8] c"class = %1c\0A\00", align 1
@.str = private unnamed_addr constant [3 x i8] c"FT\00", align 1
@.str.1 = private unnamed_addr constant [25 x i8] c"          floating point\00", align 1
@.str.2 = private unnamed_addr constant [15 x i8] c"3.0 structured\00", align 1
@.str.3 = private unnamed_addr constant [12 x i8] c"03 Apr 2023\00", align 1
@.str.4 = private unnamed_addr constant [7 x i8] c"gclang\00", align 1
@.str.5 = private unnamed_addr constant [7 x i8] c"(none)\00", align 1
@.str.6 = private unnamed_addr constant [12 x i8] c"-I../common\00", align 1
@.str.7 = private unnamed_addr constant [36 x i8] c"-g -O1 -Xclang -disable-llvm-passes\00", align 1
@.str.8 = private unnamed_addr constant [19 x i8] c"-lm -mcmodel=large\00", align 1
@.str.9 = private unnamed_addr constant [7 x i8] c"randdp\00", align 1
@.str.1.19 = private unnamed_addr constant [27 x i8] c"\0A\0A %s Benchmark Completed\0A\00", align 1
@.str.2.20 = private unnamed_addr constant [46 x i8] c" Class           =                        %c\0A\00", align 1
@.str.3.21 = private unnamed_addr constant [37 x i8] c" Size            =             %12d\0A\00", align 1
@.str.4.22 = private unnamed_addr constant [45 x i8] c" Size            =              %3dx%3dx%3d\0A\00", align 1
@.str.5.23 = private unnamed_addr constant [37 x i8] c" Iterations      =             %12d\0A\00", align 1
@.str.6.24 = private unnamed_addr constant [37 x i8] c" Threads         =             %12d\0A\00", align 1
@.str.7.25 = private unnamed_addr constant [39 x i8] c" Time in seconds =             %12.2f\0A\00", align 1
@.str.8.26 = private unnamed_addr constant [39 x i8] c" Mop/s total     =             %12.2f\0A\00", align 1
@.str.9.27 = private unnamed_addr constant [25 x i8] c" Operation type  = %24s\0A\00", align 1
@str.3 = private unnamed_addr constant [44 x i8] c" Verification    =             UNSUCCESSFUL\00", align 1
@str.5 = private unnamed_addr constant [44 x i8] c" Verification    =               SUCCESSFUL\00", align 1
@.str.12.30 = private unnamed_addr constant [35 x i8] c" Version         =           %12s\0A\00", align 1
@.str.13.31 = private unnamed_addr constant [37 x i8] c" Compile date    =             %12s\0A\00", align 1
@str.4 = private unnamed_addr constant [19 x i8] c"\0A Compile options:\00", align 1
@.str.15.33 = private unnamed_addr constant [23 x i8] c"    CC           = %s\0A\00", align 1
@.str.16.34 = private unnamed_addr constant [23 x i8] c"    CLINK        = %s\0A\00", align 1
@.str.17.35 = private unnamed_addr constant [23 x i8] c"    C_LIB        = %s\0A\00", align 1
@.str.18.36 = private unnamed_addr constant [23 x i8] c"    C_INC        = %s\0A\00", align 1
@.str.19 = private unnamed_addr constant [23 x i8] c"    CFLAGS       = %s\0A\00", align 1
@.str.20 = private unnamed_addr constant [23 x i8] c"    CLINKFLAGS   = %s\0A\00", align 1
@.str.21 = private unnamed_addr constant [23 x i8] c"    RAND         = %s\0A\00", align 1
@wtime_.sec = internal unnamed_addr global i32 -1, align 4
@.str.13 = private unnamed_addr constant [99 x i8] c"CFFTZ: Either U has not been initialized, or else\0Aone of the input parameters is invalid%5d%5d%5d\0A\00", align 1
@u = internal unnamed_addr global [512 x %struct.dcomplex] zeroinitializer, align 16
@compute_initial_conditions.tmp = internal unnamed_addr global [524289 x double] zeroinitializer, align 16
@str = private unnamed_addr constant [75 x i8] c"\0A\0A NAS Parallel Benchmarks 3.0 structured OpenMP C version - FT Benchmark\0A\00", align 1
@.str.11 = private unnamed_addr constant [36 x i8] c" Size                : %3dx%3dx%3d\0A\00", align 1
@.str.12 = private unnamed_addr constant [32 x i8] c" Iterations          :     %7d\0A\00", align 1
@_ZTVN4MARC11ThreadCTaskE = dso_local unnamed_addr constant { [5 x i8*] } { [5 x i8*] [i8* null, i8* bitcast ({ i8*, i8*, i8* }* @_ZTIN4MARC11ThreadCTaskE to i8*), i8* bitcast (void (%"class.MARC::ThreadCTask"*)* @_ZN4MARC11ThreadCTask7executeEv to i8*), i8* bitcast (void (%"class.MARC::IThreadTask"*)* @_ZN4MARC11IThreadTaskD2Ev to i8*), i8* bitcast (void (%"class.MARC::ThreadCTask"*)* @_ZN4MARC11ThreadCTaskD0Ev to i8*)] }, align 8
@_ZTIN4MARC11ThreadCTaskE = dso_local constant { i8*, i8*, i8* } { i8* bitcast (i8** getelementptr inbounds (i8*, i8** @_ZTVN10__cxxabiv120__si_class_type_infoE, i64 2) to i8*), i8* getelementptr inbounds ([21 x i8], [21 x i8]* @_ZTSN4MARC11ThreadCTaskE, i32 0, i32 0), i8* bitcast ({ i8*, i8* }* @_ZTIN4MARC11IThreadTaskE to i8*) }, align 8
@_ZSt4cerr = external dso_local global %"class.std::basic_ostream", align 8
@.str.10 = private unnamed_addr constant [51 x i8] c"ThreadPool: Error calling pthread_setaffinity_np: \00", align 1
@_ZTVN10__cxxabiv120__si_class_type_infoE = external dso_local global i8*
@_ZTSN4MARC11ThreadCTaskE = dso_local constant [21 x i8] c"N4MARC11ThreadCTaskE\00", align 1
@_ZTIN4MARC11IThreadTaskE = linkonce_odr dso_local constant { i8*, i8* } { i8* bitcast (i8** getelementptr inbounds (i8*, i8** @_ZTVN10__cxxabiv117__class_type_infoE, i64 2) to i8*), i8* getelementptr inbounds ([21 x i8], [21 x i8]* @_ZTSN4MARC11IThreadTaskE, i32 0, i32 0) }, comdat, align 8
@_ZTVN10__cxxabiv117__class_type_infoE = external dso_local global i8*
@_ZTSN4MARC11IThreadTaskE = linkonce_odr dso_local constant [21 x i8] c"N4MARC11IThreadTaskE\00", comdat, align 1
@_ZTVN4MARC10ThreadPoolE = dso_local unnamed_addr constant { [4 x i8*] } { [4 x i8*] [i8* null, i8* bitcast ({ i8*, i8*, i8* }* @_ZTIN4MARC10ThreadPoolE to i8*), i8* bitcast (i64 (%"class.MARC::ThreadPool"*)* @_ZNK4MARC10ThreadPool33numberOfTasksWaitingToBeProcessedEv to i8*), i8* bitcast (void (%"class.MARC::ThreadPool"*, %"struct.std::atomic"*, i32)* @_ZN4MARC10ThreadPool14workerFunctionEPSt6atomicIbEj to i8*)] }, align 8
@_ZTIN4MARC10ThreadPoolE = dso_local constant { i8*, i8*, i8* } { i8* bitcast (i8** getelementptr inbounds (i8*, i8** @_ZTVN10__cxxabiv120__si_class_type_infoE, i64 2) to i8*), i8* getelementptr inbounds ([20 x i8], [20 x i8]* @_ZTSN4MARC10ThreadPoolE, i32 0, i32 0), i8* bitcast ({ i8*, i8* }* @_ZTIN4MARC19ThreadPoolInterfaceE to i8*) }, align 8
@_ZTSN4MARC10ThreadPoolE = dso_local constant [20 x i8] c"N4MARC10ThreadPoolE\00", align 1
@_ZTIN4MARC19ThreadPoolInterfaceE = linkonce_odr dso_local constant { i8*, i8* } { i8* bitcast (i8** getelementptr inbounds (i8*, i8** @_ZTVN10__cxxabiv117__class_type_infoE, i64 2) to i8*), i8* getelementptr inbounds ([29 x i8], [29 x i8]* @_ZTSN4MARC19ThreadPoolInterfaceE, i32 0, i32 0) }, comdat, align 8
@_ZTSN4MARC19ThreadPoolInterfaceE = linkonce_odr dso_local constant [29 x i8] c"N4MARC19ThreadPoolInterfaceE\00", comdat, align 1
@_ZTVN4MARC25ThreadPoolForCSingleQueueE = dso_local unnamed_addr constant { [5 x i8*] } { [5 x i8*] [i8* null, i8* bitcast ({ i8*, i8*, i8* }* @_ZTIN4MARC25ThreadPoolForCSingleQueueE to i8*), i8* bitcast (i64 (%"class.MARC::ThreadPoolForCSingleQueue"*)* @_ZNK4MARC25ThreadPoolForCSingleQueue33numberOfTasksWaitingToBeProcessedEv to i8*), i8* bitcast (void (%"class.MARC::ThreadPoolForCSingleQueue"*, %"struct.std::atomic"*, i32)* @_ZN4MARC25ThreadPoolForCSingleQueue14workerFunctionEPSt6atomicIbEj to i8*), i8* bitcast (void (%"class.MARC::ThreadPoolForCSingleQueue"*, void (i8*)*, i8*)* @_ZN4MARC25ThreadPoolForCSingleQueue15submitAndDetachEPFvPvES1_ to i8*)] }, align 8
@_ZTIN4MARC25ThreadPoolForCSingleQueueE = dso_local constant { i8*, i8*, i8* } { i8* bitcast (i8** getelementptr inbounds (i8*, i8** @_ZTVN10__cxxabiv120__si_class_type_infoE, i64 2) to i8*), i8* getelementptr inbounds ([35 x i8], [35 x i8]* @_ZTSN4MARC25ThreadPoolForCSingleQueueE, i32 0, i32 0), i8* bitcast ({ i8*, i8*, i8* }* @_ZTIN4MARC14ThreadPoolForCE to i8*) }, align 8
@.str.1.11 = private unnamed_addr constant [14 x i8] c"!this->m_done\00", align 1
@.str.2.12 = private unnamed_addr constant [57 x i8] c"../../include/threadpool/include/ThreadPoolInterface.hpp\00", align 1
@__PRETTY_FUNCTION__._ZN4MARC19ThreadPoolInterface10expandPoolEv = private unnamed_addr constant [45 x i8] c"void MARC::ThreadPoolInterface::expandPool()\00", align 1
@__PRETTY_FUNCTION__._ZN4MARC19ThreadPoolInterface10newThreadsEj = private unnamed_addr constant [58 x i8] c"void MARC::ThreadPoolInterface::newThreads(std::uint32_t)\00", align 1
@_ZTVNSt6thread11_State_implINS_8_InvokerISt5tupleIJPFvPN4MARC19ThreadPoolInterfaceEPSt6atomicIbEjES5_S8_iEEEEEE = linkonce_odr dso_local unnamed_addr constant { [5 x i8*] } { [5 x i8*] [i8* null, i8* bitcast ({ i8*, i8*, i8* }* @_ZTINSt6thread11_State_implINS_8_InvokerISt5tupleIJPFvPN4MARC19ThreadPoolInterfaceEPSt6atomicIbEjES5_S8_iEEEEEE to i8*), i8* bitcast (void (%"class.MARC::IThreadTask"*)* @_ZNSt6thread6_StateD2Ev to i8*), i8* bitcast (void (%"struct.std::thread::_State_impl"*)* @_ZNSt6thread11_State_implINS_8_InvokerISt5tupleIJPFvPN4MARC19ThreadPoolInterfaceEPSt6atomicIbEjES5_S8_iEEEEED0Ev to i8*), i8* bitcast (void (%"struct.std::thread::_State_impl"*)* @_ZNSt6thread11_State_implINS_8_InvokerISt5tupleIJPFvPN4MARC19ThreadPoolInterfaceEPSt6atomicIbEjES5_S8_iEEEEE6_M_runEv to i8*)] }, comdat, align 8
@_ZTINSt6thread11_State_implINS_8_InvokerISt5tupleIJPFvPN4MARC19ThreadPoolInterfaceEPSt6atomicIbEjES5_S8_iEEEEEE = linkonce_odr dso_local constant { i8*, i8*, i8* } { i8* bitcast (i8** getelementptr inbounds (i8*, i8** @_ZTVN10__cxxabiv120__si_class_type_infoE, i64 2) to i8*), i8* getelementptr inbounds ([108 x i8], [108 x i8]* @_ZTSNSt6thread11_State_implINS_8_InvokerISt5tupleIJPFvPN4MARC19ThreadPoolInterfaceEPSt6atomicIbEjES5_S8_iEEEEEE, i32 0, i32 0), i8* bitcast (i8** @_ZTINSt6thread6_StateE to i8*) }, comdat, align 8
@_ZTSNSt6thread11_State_implINS_8_InvokerISt5tupleIJPFvPN4MARC19ThreadPoolInterfaceEPSt6atomicIbEjES5_S8_iEEEEEE = linkonce_odr dso_local constant [108 x i8] c"NSt6thread11_State_implINS_8_InvokerISt5tupleIJPFvPN4MARC19ThreadPoolInterfaceEPSt6atomicIbEjES5_S8_iEEEEEE\00", comdat, align 1
@_ZTINSt6thread6_StateE = external dso_local constant i8*
@_ZTSN4MARC25ThreadPoolForCSingleQueueE = dso_local constant [35 x i8] c"N4MARC25ThreadPoolForCSingleQueueE\00", align 1
@_ZTIN4MARC14ThreadPoolForCE = linkonce_odr dso_local constant { i8*, i8*, i8* } { i8* bitcast (i8** getelementptr inbounds (i8*, i8** @_ZTVN10__cxxabiv120__si_class_type_infoE, i64 2) to i8*), i8* getelementptr inbounds ([24 x i8], [24 x i8]* @_ZTSN4MARC14ThreadPoolForCE, i32 0, i32 0), i8* bitcast ({ i8*, i8* }* @_ZTIN4MARC19ThreadPoolInterfaceE to i8*) }, comdat, align 8
@_ZTSN4MARC14ThreadPoolForCE = linkonce_odr dso_local constant [24 x i8] c"N4MARC14ThreadPoolForCE\00", comdat, align 1
@_ZTVN4MARC25ThreadPoolForCMultiQueuesE = dso_local unnamed_addr constant { [5 x i8*] } { [5 x i8*] [i8* null, i8* bitcast ({ i8*, i8*, i8* }* @_ZTIN4MARC25ThreadPoolForCMultiQueuesE to i8*), i8* bitcast (i64 (%"class.MARC::ThreadPoolForCMultiQueues"*)* @_ZNK4MARC25ThreadPoolForCMultiQueues33numberOfTasksWaitingToBeProcessedEv to i8*), i8* bitcast (void (%"class.MARC::ThreadPoolForCMultiQueues"*, %"struct.std::atomic"*, i32)* @_ZN4MARC25ThreadPoolForCMultiQueues14workerFunctionEPSt6atomicIbEj to i8*), i8* bitcast (void (%"class.MARC::ThreadPoolForCMultiQueues"*, void (i8*)*, i8*)* @_ZN4MARC25ThreadPoolForCMultiQueues15submitAndDetachEPFvPvES1_ to i8*)] }, align 8
@_ZTIN4MARC25ThreadPoolForCMultiQueuesE = dso_local constant { i8*, i8*, i8* } { i8* bitcast (i8** getelementptr inbounds (i8*, i8** @_ZTVN10__cxxabiv120__si_class_type_infoE, i64 2) to i8*), i8* getelementptr inbounds ([35 x i8], [35 x i8]* @_ZTSN4MARC25ThreadPoolForCMultiQueuesE, i32 0, i32 0), i8* bitcast ({ i8*, i8*, i8* }* @_ZTIN4MARC14ThreadPoolForCE to i8*) }, align 8
@_ZZN4MARC25ThreadPoolForCMultiQueues15submitAndDetachEPFvPvES1_E12nextLocality = internal unnamed_addr global i32 0, align 4
@.str.21.13 = private unnamed_addr constant [74 x i8] c"vector::_M_range_check: __n (which is %zu) >= this->size() (which is %zu)\00", align 1
@_ZTSN4MARC25ThreadPoolForCMultiQueuesE = dso_local constant [35 x i8] c"N4MARC25ThreadPoolForCMultiQueuesE\00", align 1
@llvm.global_ctors = appending global [1 x { i32, void ()*, i8* }] [{ i32, void ()*, i8* } { i32 65535, void ()* @_GLOBAL__sub_I_Parallelizer_utils.cpp, i8* null }]
@_ZStL8__ioinit = internal global %"struct.std::__atomic_base" zeroinitializer, align 1
@__dso_handle = external hidden global i8
@_ZL7runtime = internal global %class.NoelleRuntime zeroinitializer, align 8
@_ZTVN4MARC14ThreadPoolForCE = linkonce_odr dso_local unnamed_addr constant { [5 x i8*] } { [5 x i8*] [i8* null, i8* bitcast ({ i8*, i8*, i8* }* @_ZTIN4MARC14ThreadPoolForCE to i8*), i8* bitcast (void ()* @__cxa_pure_virtual to i8*), i8* bitcast (void ()* @__cxa_pure_virtual to i8*), i8* bitcast (void ()* @__cxa_pure_virtual to i8*)] }, comdat, align 8
@_ZTVN4MARC19ThreadPoolInterfaceE = linkonce_odr dso_local unnamed_addr constant { [4 x i8*] } { [4 x i8*] [i8* null, i8* bitcast ({ i8*, i8* }* @_ZTIN4MARC19ThreadPoolInterfaceE to i8*), i8* bitcast (void ()* @__cxa_pure_virtual to i8*), i8* bitcast (void ()* @__cxa_pure_virtual to i8*)] }, comdat, align 8
@.str.3.14 = private unnamed_addr constant [13 x i8] c"this->m_done\00", align 1
@__PRETTY_FUNCTION__._ZN4MARC19ThreadPoolInterfaceD2Ev = private unnamed_addr constant [50 x i8] c"MARC::ThreadPoolInterface::~ThreadPoolInterface()\00", align 1
@_ZTVN4MARC20ThreadSafeMutexQueueISt8functionIFvvEEEE = linkonce_odr dso_local unnamed_addr constant { [12 x i8*] } { [12 x i8*] [i8* null, i8* bitcast ({ i8*, i8*, i8* }* @_ZTIN4MARC20ThreadSafeMutexQueueISt8functionIFvvEEEE to i8*), i8* bitcast (i1 (%"class.MARC::ThreadSafeMutexQueue"*, %"class.std::function"*)* @_ZN4MARC20ThreadSafeMutexQueueISt8functionIFvvEEE6tryPopERS3_ to i8*), i8* bitcast (i1 (%"class.MARC::ThreadSafeMutexQueue"*, %"class.std::function"*)* @_ZN4MARC20ThreadSafeMutexQueueISt8functionIFvvEEE7waitPopERS3_ to i8*), i8* bitcast (i1 (%"class.MARC::ThreadSafeMutexQueue"*)* @_ZN4MARC20ThreadSafeMutexQueueISt8functionIFvvEEE7waitPopEv to i8*), i8* bitcast (void (%"class.MARC::ThreadSafeMutexQueue"*, %"class.std::function"*)* @_ZN4MARC20ThreadSafeMutexQueueISt8functionIFvvEEE4pushES3_ to i8*), i8* bitcast (i1 (%"class.MARC::ThreadSafeMutexQueue"*, %"class.std::function"*, i64)* @_ZN4MARC20ThreadSafeMutexQueueISt8functionIFvvEEE8waitPushES3_l to i8*), i8* bitcast (void (%"class.MARC::ThreadSafeMutexQueue"*)* @_ZN4MARC20ThreadSafeMutexQueueISt8functionIFvvEEE5clearEv to i8*), i8* bitcast (i1 (%"class.MARC::ThreadSafeMutexQueue"*)* @_ZNK4MARC20ThreadSafeMutexQueueISt8functionIFvvEEE5emptyEv to i8*), i8* bitcast (i64 (%"class.MARC::ThreadSafeMutexQueue"*)* @_ZNK4MARC20ThreadSafeMutexQueueISt8functionIFvvEEE4sizeEv to i8*), i8* bitcast (i1 (%"class.MARC::ThreadSafeQueue"*)* @_ZNK4MARC15ThreadSafeQueueISt8functionIFvvEEE7isValidEv to i8*), i8* bitcast (void (%"class.MARC::ThreadSafeMutexQueue"*)* @_ZN4MARC20ThreadSafeMutexQueueISt8functionIFvvEEE10invalidateEv to i8*)] }, comdat, align 8
@_ZTVN4MARC15ThreadSafeQueueISt8functionIFvvEEEE = linkonce_odr dso_local unnamed_addr constant { [12 x i8*] } { [12 x i8*] [i8* null, i8* bitcast ({ i8*, i8* }* @_ZTIN4MARC15ThreadSafeQueueISt8functionIFvvEEEE to i8*), i8* bitcast (void ()* @__cxa_pure_virtual to i8*), i8* bitcast (void ()* @__cxa_pure_virtual to i8*), i8* bitcast (void ()* @__cxa_pure_virtual to i8*), i8* bitcast (void ()* @__cxa_pure_virtual to i8*), i8* bitcast (void ()* @__cxa_pure_virtual to i8*), i8* bitcast (void ()* @__cxa_pure_virtual to i8*), i8* bitcast (void ()* @__cxa_pure_virtual to i8*), i8* bitcast (void ()* @__cxa_pure_virtual to i8*), i8* bitcast (i1 (%"class.MARC::ThreadSafeQueue"*)* @_ZNK4MARC15ThreadSafeQueueISt8functionIFvvEEE7isValidEv to i8*), i8* bitcast (void (%"class.MARC::ThreadSafeQueue"*)* @_ZN4MARC15ThreadSafeQueueISt8functionIFvvEEE10invalidateEv to i8*)] }, comdat, align 8
@_ZTIN4MARC15ThreadSafeQueueISt8functionIFvvEEEE = linkonce_odr dso_local constant { i8*, i8* } { i8* bitcast (i8** getelementptr inbounds (i8*, i8** @_ZTVN10__cxxabiv117__class_type_infoE, i64 2) to i8*), i8* getelementptr inbounds ([44 x i8], [44 x i8]* @_ZTSN4MARC15ThreadSafeQueueISt8functionIFvvEEEE, i32 0, i32 0) }, comdat, align 8
@_ZTSN4MARC15ThreadSafeQueueISt8functionIFvvEEEE = linkonce_odr dso_local constant [44 x i8] c"N4MARC15ThreadSafeQueueISt8functionIFvvEEEE\00", comdat, align 1
@_ZTIN4MARC20ThreadSafeMutexQueueISt8functionIFvvEEEE = linkonce_odr dso_local constant { i8*, i8*, i8* } { i8* bitcast (i8** getelementptr inbounds (i8*, i8** @_ZTVN10__cxxabiv120__si_class_type_infoE, i64 2) to i8*), i8* getelementptr inbounds ([49 x i8], [49 x i8]* @_ZTSN4MARC20ThreadSafeMutexQueueISt8functionIFvvEEEE, i32 0, i32 0), i8* bitcast ({ i8*, i8* }* @_ZTIN4MARC15ThreadSafeQueueISt8functionIFvvEEEE to i8*) }, comdat, align 8
@_ZTSN4MARC20ThreadSafeMutexQueueISt8functionIFvvEEEE = linkonce_odr dso_local constant [49 x i8] c"N4MARC20ThreadSafeMutexQueueISt8functionIFvvEEEE\00", comdat, align 1
@_ZTVN4MARC20ThreadSafeMutexQueueIPNS_11ThreadCTaskEEE = linkonce_odr dso_local unnamed_addr constant { [12 x i8*] } { [12 x i8*] [i8* null, i8* bitcast ({ i8*, i8*, i8* }* @_ZTIN4MARC20ThreadSafeMutexQueueIPNS_11ThreadCTaskEEE to i8*), i8* bitcast (i1 (%"class.MARC::ThreadSafeMutexQueue.28"*, %"class.MARC::ThreadCTask"**)* @_ZN4MARC20ThreadSafeMutexQueueIPNS_11ThreadCTaskEE6tryPopERS2_ to i8*), i8* bitcast (i1 (%"class.MARC::ThreadSafeMutexQueue.28"*, %"class.MARC::ThreadCTask"**)* @_ZN4MARC20ThreadSafeMutexQueueIPNS_11ThreadCTaskEE7waitPopERS2_ to i8*), i8* bitcast (i1 (%"class.MARC::ThreadSafeMutexQueue.28"*)* @_ZN4MARC20ThreadSafeMutexQueueIPNS_11ThreadCTaskEE7waitPopEv to i8*), i8* bitcast (void (%"class.MARC::ThreadSafeMutexQueue.28"*, %"class.MARC::ThreadCTask"*)* @_ZN4MARC20ThreadSafeMutexQueueIPNS_11ThreadCTaskEE4pushES2_ to i8*), i8* bitcast (i1 (%"class.MARC::ThreadSafeMutexQueue.28"*, %"class.MARC::ThreadCTask"*, i64)* @_ZN4MARC20ThreadSafeMutexQueueIPNS_11ThreadCTaskEE8waitPushES2_l to i8*), i8* bitcast (void (%"class.MARC::ThreadSafeMutexQueue.28"*)* @_ZN4MARC20ThreadSafeMutexQueueIPNS_11ThreadCTaskEE5clearEv to i8*), i8* bitcast (i1 (%"class.MARC::ThreadSafeMutexQueue.28"*)* @_ZNK4MARC20ThreadSafeMutexQueueIPNS_11ThreadCTaskEE5emptyEv to i8*), i8* bitcast (i64 (%"class.MARC::ThreadSafeMutexQueue.28"*)* @_ZNK4MARC20ThreadSafeMutexQueueIPNS_11ThreadCTaskEE4sizeEv to i8*), i8* bitcast (i1 (%"class.MARC::ThreadSafeQueue.29"*)* @_ZNK4MARC15ThreadSafeQueueIPNS_11ThreadCTaskEE7isValidEv to i8*), i8* bitcast (void (%"class.MARC::ThreadSafeMutexQueue.28"*)* @_ZN4MARC20ThreadSafeMutexQueueIPNS_11ThreadCTaskEE10invalidateEv to i8*)] }, comdat, align 8
@_ZTVN4MARC15ThreadSafeQueueIPNS_11ThreadCTaskEEE = linkonce_odr dso_local unnamed_addr constant { [12 x i8*] } { [12 x i8*] [i8* null, i8* bitcast ({ i8*, i8* }* @_ZTIN4MARC15ThreadSafeQueueIPNS_11ThreadCTaskEEE to i8*), i8* bitcast (void ()* @__cxa_pure_virtual to i8*), i8* bitcast (void ()* @__cxa_pure_virtual to i8*), i8* bitcast (void ()* @__cxa_pure_virtual to i8*), i8* bitcast (void ()* @__cxa_pure_virtual to i8*), i8* bitcast (void ()* @__cxa_pure_virtual to i8*), i8* bitcast (void ()* @__cxa_pure_virtual to i8*), i8* bitcast (void ()* @__cxa_pure_virtual to i8*), i8* bitcast (void ()* @__cxa_pure_virtual to i8*), i8* bitcast (i1 (%"class.MARC::ThreadSafeQueue.29"*)* @_ZNK4MARC15ThreadSafeQueueIPNS_11ThreadCTaskEE7isValidEv to i8*), i8* bitcast (void (%"class.MARC::ThreadSafeQueue.29"*)* @_ZN4MARC15ThreadSafeQueueIPNS_11ThreadCTaskEE10invalidateEv to i8*)] }, comdat, align 8
@_ZTIN4MARC15ThreadSafeQueueIPNS_11ThreadCTaskEEE = linkonce_odr dso_local constant { i8*, i8* } { i8* bitcast (i8** getelementptr inbounds (i8*, i8** @_ZTVN10__cxxabiv117__class_type_infoE, i64 2) to i8*), i8* getelementptr inbounds ([45 x i8], [45 x i8]* @_ZTSN4MARC15ThreadSafeQueueIPNS_11ThreadCTaskEEE, i32 0, i32 0) }, comdat, align 8
@_ZTSN4MARC15ThreadSafeQueueIPNS_11ThreadCTaskEEE = linkonce_odr dso_local constant [45 x i8] c"N4MARC15ThreadSafeQueueIPNS_11ThreadCTaskEEE\00", comdat, align 1
@_ZTIN4MARC20ThreadSafeMutexQueueIPNS_11ThreadCTaskEEE = linkonce_odr dso_local constant { i8*, i8*, i8* } { i8* bitcast (i8** getelementptr inbounds (i8*, i8** @_ZTVN10__cxxabiv120__si_class_type_infoE, i64 2) to i8*), i8* getelementptr inbounds ([50 x i8], [50 x i8]* @_ZTSN4MARC20ThreadSafeMutexQueueIPNS_11ThreadCTaskEEE, i32 0, i32 0), i8* bitcast ({ i8*, i8* }* @_ZTIN4MARC15ThreadSafeQueueIPNS_11ThreadCTaskEEE to i8*) }, comdat, align 8
@_ZTSN4MARC20ThreadSafeMutexQueueIPNS_11ThreadCTaskEEE = linkonce_odr dso_local constant [50 x i8] c"N4MARC20ThreadSafeMutexQueueIPNS_11ThreadCTaskEEE\00", comdat, align 1
@_ZZN13NoelleRuntime23getMaximumNumberOfCoresEvE5cores = internal unnamed_addr global i32 0, align 4
@.str.15 = private unnamed_addr constant [13 x i8] c"NOELLE_CORES\00", align 1
@_ZTVN4MARC15ThreadSafeQueueISt10unique_ptrINS_11IThreadTaskESt14default_deleteIS2_EEEE = linkonce_odr dso_local unnamed_addr constant { [12 x i8*] } { [12 x i8*] [i8* null, i8* bitcast ({ i8*, i8* }* @_ZTIN4MARC15ThreadSafeQueueISt10unique_ptrINS_11IThreadTaskESt14default_deleteIS2_EEEE to i8*), i8* bitcast (void ()* @__cxa_pure_virtual to i8*), i8* bitcast (void ()* @__cxa_pure_virtual to i8*), i8* bitcast (void ()* @__cxa_pure_virtual to i8*), i8* bitcast (void ()* @__cxa_pure_virtual to i8*), i8* bitcast (void ()* @__cxa_pure_virtual to i8*), i8* bitcast (void ()* @__cxa_pure_virtual to i8*), i8* bitcast (void ()* @__cxa_pure_virtual to i8*), i8* bitcast (void ()* @__cxa_pure_virtual to i8*), i8* bitcast (i1 (%"class.MARC::ThreadSafeQueue.12"*)* @_ZNK4MARC15ThreadSafeQueueISt10unique_ptrINS_11IThreadTaskESt14default_deleteIS2_EEE7isValidEv to i8*), i8* bitcast (void (%"class.MARC::ThreadSafeQueue.12"*)* @_ZN4MARC15ThreadSafeQueueISt10unique_ptrINS_11IThreadTaskESt14default_deleteIS2_EEE10invalidateEv to i8*)] }, comdat, align 8
@_ZTVN4MARC20ThreadSafeMutexQueueISt10unique_ptrINS_11IThreadTaskESt14default_deleteIS2_EEEE = linkonce_odr dso_local unnamed_addr constant { [12 x i8*] } { [12 x i8*] [i8* null, i8* bitcast ({ i8*, i8*, i8* }* @_ZTIN4MARC20ThreadSafeMutexQueueISt10unique_ptrINS_11IThreadTaskESt14default_deleteIS2_EEEE to i8*), i8* bitcast (i1 (%"class.MARC::ThreadSafeMutexQueue.11"*, %"class.std::unique_ptr"*)* @_ZN4MARC20ThreadSafeMutexQueueISt10unique_ptrINS_11IThreadTaskESt14default_deleteIS2_EEE6tryPopERS5_ to i8*), i8* bitcast (i1 (%"class.MARC::ThreadSafeMutexQueue.11"*, %"class.std::unique_ptr"*)* @_ZN4MARC20ThreadSafeMutexQueueISt10unique_ptrINS_11IThreadTaskESt14default_deleteIS2_EEE7waitPopERS5_ to i8*), i8* bitcast (i1 (%"class.MARC::ThreadSafeMutexQueue.11"*)* @_ZN4MARC20ThreadSafeMutexQueueISt10unique_ptrINS_11IThreadTaskESt14default_deleteIS2_EEE7waitPopEv to i8*), i8* bitcast (void (%"class.MARC::ThreadSafeMutexQueue.11"*, %"class.std::unique_ptr"*)* @_ZN4MARC20ThreadSafeMutexQueueISt10unique_ptrINS_11IThreadTaskESt14default_deleteIS2_EEE4pushES5_ to i8*), i8* bitcast (i1 (%"class.MARC::ThreadSafeMutexQueue.11"*, %"class.std::unique_ptr"*, i64)* @_ZN4MARC20ThreadSafeMutexQueueISt10unique_ptrINS_11IThreadTaskESt14default_deleteIS2_EEE8waitPushES5_l to i8*), i8* bitcast (void (%"class.MARC::ThreadSafeMutexQueue.11"*)* @_ZN4MARC20ThreadSafeMutexQueueISt10unique_ptrINS_11IThreadTaskESt14default_deleteIS2_EEE5clearEv to i8*), i8* bitcast (i1 (%"class.MARC::ThreadSafeMutexQueue.11"*)* @_ZNK4MARC20ThreadSafeMutexQueueISt10unique_ptrINS_11IThreadTaskESt14default_deleteIS2_EEE5emptyEv to i8*), i8* bitcast (i64 (%"class.MARC::ThreadSafeMutexQueue.11"*)* @_ZNK4MARC20ThreadSafeMutexQueueISt10unique_ptrINS_11IThreadTaskESt14default_deleteIS2_EEE4sizeEv to i8*), i8* bitcast (i1 (%"class.MARC::ThreadSafeQueue.12"*)* @_ZNK4MARC15ThreadSafeQueueISt10unique_ptrINS_11IThreadTaskESt14default_deleteIS2_EEE7isValidEv to i8*), i8* bitcast (void (%"class.MARC::ThreadSafeMutexQueue.11"*)* @_ZN4MARC20ThreadSafeMutexQueueISt10unique_ptrINS_11IThreadTaskESt14default_deleteIS2_EEE10invalidateEv to i8*)] }, comdat, align 8
@_ZTIN4MARC20ThreadSafeMutexQueueISt10unique_ptrINS_11IThreadTaskESt14default_deleteIS2_EEEE = linkonce_odr dso_local constant { i8*, i8*, i8* } { i8* bitcast (i8** getelementptr inbounds (i8*, i8** @_ZTVN10__cxxabiv120__si_class_type_infoE, i64 2) to i8*), i8* getelementptr inbounds ([88 x i8], [88 x i8]* @_ZTSN4MARC20ThreadSafeMutexQueueISt10unique_ptrINS_11IThreadTaskESt14default_deleteIS2_EEEE, i32 0, i32 0), i8* bitcast ({ i8*, i8* }* @_ZTIN4MARC15ThreadSafeQueueISt10unique_ptrINS_11IThreadTaskESt14default_deleteIS2_EEEE to i8*) }, comdat, align 8
@_ZTSN4MARC20ThreadSafeMutexQueueISt10unique_ptrINS_11IThreadTaskESt14default_deleteIS2_EEEE = linkonce_odr dso_local constant [88 x i8] c"N4MARC20ThreadSafeMutexQueueISt10unique_ptrINS_11IThreadTaskESt14default_deleteIS2_EEEE\00", comdat, align 1
@_ZTIN4MARC15ThreadSafeQueueISt10unique_ptrINS_11IThreadTaskESt14default_deleteIS2_EEEE = linkonce_odr dso_local constant { i8*, i8* } { i8* bitcast (i8** getelementptr inbounds (i8*, i8** @_ZTVN10__cxxabiv117__class_type_infoE, i64 2) to i8*), i8* getelementptr inbounds ([83 x i8], [83 x i8]* @_ZTSN4MARC15ThreadSafeQueueISt10unique_ptrINS_11IThreadTaskESt14default_deleteIS2_EEEE, i32 0, i32 0) }, comdat, align 8
@_ZTSN4MARC15ThreadSafeQueueISt10unique_ptrINS_11IThreadTaskESt14default_deleteIS2_EEEE = linkonce_odr dso_local constant [83 x i8] c"N4MARC15ThreadSafeQueueISt10unique_ptrINS_11IThreadTaskESt14default_deleteIS2_EEEE\00", comdat, align 1
@_ZTVN4MARC23ThreadSafeSpinLockQueueIPNS_11ThreadCTaskEEE = linkonce_odr dso_local unnamed_addr constant { [12 x i8*] } { [12 x i8*] [i8* null, i8* bitcast ({ i8*, i8*, i8* }* @_ZTIN4MARC23ThreadSafeSpinLockQueueIPNS_11ThreadCTaskEEE to i8*), i8* bitcast (i1 (%"class.MARC::ThreadSafeSpinLockQueue"*, %"class.MARC::ThreadCTask"**)* @_ZN4MARC23ThreadSafeSpinLockQueueIPNS_11ThreadCTaskEE6tryPopERS2_ to i8*), i8* bitcast (i1 (%"class.MARC::ThreadSafeSpinLockQueue"*, %"class.MARC::ThreadCTask"**)* @_ZN4MARC23ThreadSafeSpinLockQueueIPNS_11ThreadCTaskEE7waitPopERS2_ to i8*), i8* bitcast (i1 (%"class.MARC::ThreadSafeSpinLockQueue"*)* @_ZN4MARC23ThreadSafeSpinLockQueueIPNS_11ThreadCTaskEE7waitPopEv to i8*), i8* bitcast (void (%"class.MARC::ThreadSafeSpinLockQueue"*, %"class.MARC::ThreadCTask"*)* @_ZN4MARC23ThreadSafeSpinLockQueueIPNS_11ThreadCTaskEE4pushES2_ to i8*), i8* bitcast (i1 (%"class.MARC::ThreadSafeSpinLockQueue"*, %"class.MARC::ThreadCTask"*, i64)* @_ZN4MARC23ThreadSafeSpinLockQueueIPNS_11ThreadCTaskEE8waitPushES2_l to i8*), i8* bitcast (void (%"class.MARC::ThreadSafeSpinLockQueue"*)* @_ZN4MARC23ThreadSafeSpinLockQueueIPNS_11ThreadCTaskEE5clearEv to i8*), i8* bitcast (i1 (%"class.MARC::ThreadSafeSpinLockQueue"*)* @_ZNK4MARC23ThreadSafeSpinLockQueueIPNS_11ThreadCTaskEE5emptyEv to i8*), i8* bitcast (i64 (%"class.MARC::ThreadSafeSpinLockQueue"*)* @_ZNK4MARC23ThreadSafeSpinLockQueueIPNS_11ThreadCTaskEE4sizeEv to i8*), i8* bitcast (i1 (%"class.MARC::ThreadSafeQueue.29"*)* @_ZNK4MARC15ThreadSafeQueueIPNS_11ThreadCTaskEE7isValidEv to i8*), i8* bitcast (void (%"class.MARC::ThreadSafeQueue.29"*)* @_ZN4MARC15ThreadSafeQueueIPNS_11ThreadCTaskEE10invalidateEv to i8*)] }, comdat, align 8
@_ZTIN4MARC23ThreadSafeSpinLockQueueIPNS_11ThreadCTaskEEE = linkonce_odr dso_local constant { i8*, i8*, i8* } { i8* bitcast (i8** getelementptr inbounds (i8*, i8** @_ZTVN10__cxxabiv120__si_class_type_infoE, i64 2) to i8*), i8* getelementptr inbounds ([53 x i8], [53 x i8]* @_ZTSN4MARC23ThreadSafeSpinLockQueueIPNS_11ThreadCTaskEEE, i32 0, i32 0), i8* bitcast ({ i8*, i8* }* @_ZTIN4MARC15ThreadSafeQueueIPNS_11ThreadCTaskEEE to i8*) }, comdat, align 8
@_ZTSN4MARC23ThreadSafeSpinLockQueueIPNS_11ThreadCTaskEEE = linkonce_odr dso_local constant [53 x i8] c"N4MARC23ThreadSafeSpinLockQueueIPNS_11ThreadCTaskEEE\00", comdat, align 1
@.str.5.15 = private unnamed_addr constant [10 x i8] c"Reached: \00", align 1
@.str.22 = private unnamed_addr constant [21 x i8] c"basic_string::append\00", align 1
@.str.7.16 = private unnamed_addr constant [13 x i8] c"Reached: %d\0A\00", align 1
@.str.8.17 = private unnamed_addr constant [12 x i8] c"Pushed: %p\0A\00", align 1
@.str.9.18 = private unnamed_addr constant [12 x i8] c"Pulled: %p\0A\00", align 1
@.str.14.21 = private unnamed_addr constant [53 x i8] c"this->NOELLE_idleCores <= ((uint32_t)this->maxCores)\00", align 1
@.str.11.22 = private unnamed_addr constant [23 x i8] c"Parallelizer_utils.cpp\00", align 1
@__PRETTY_FUNCTION__._ZN13NoelleRuntime12releaseCoresEj = private unnamed_addr constant [43 x i8] c"void NoelleRuntime::releaseCores(uint32_t)\00", align 1
@.str.38 = private unnamed_addr constant [28 x i8] c"vector<bool>::_M_insert_aux\00", align 1
@.str.13.23 = private unnamed_addr constant [18 x i8] c"coresReleased > 0\00", align 1
@.str.16 = private unnamed_addr constant [25 x i8] c"parallelizedLoop != NULL\00", align 1
@__PRETTY_FUNCTION__._ZL23NOELLE_HELIX_dispatcherPFvPvS_S_S_llPmES_S_llb = private unnamed_addr constant [151 x i8] c"DispatcherInfo NOELLE_HELIX_dispatcher(void (*)(void *, void *, void *, void *, int64_t, int64_t, uint64_t *), void *, void *, int64_t, int64_t, bool)\00", align 1
@.str.17.24 = private unnamed_addr constant [12 x i8] c"env != NULL\00", align 1
@.str.18 = private unnamed_addr constant [21 x i8] c"maxNumberOfCores > 1\00", align 1
@stderr = external dso_local local_unnamed_addr global %struct._IO_FILE*, align 8
@.str.19.25 = private unnamed_addr constant [89 x i8] c"HELIX: dispatcher: ERROR = not enough memory to allocate %lld sequential segment arrays\0A\00", align 1
@.str.12.26 = private unnamed_addr constant [38 x i8] c"NOELLE: Runtime: QUEUE SIZE INCORRECT\00", align 1
@_ZTVN4MARC23ThreadSafeLockFreeQueueIlEE = linkonce_odr dso_local unnamed_addr constant { [12 x i8*] } { [12 x i8*] [i8* null, i8* bitcast ({ i8*, i8*, i8* }* @_ZTIN4MARC23ThreadSafeLockFreeQueueIlEE to i8*), i8* bitcast (i1 (%"class.MARC::ThreadSafeLockFreeQueue.115"*, i64*)* @_ZN4MARC23ThreadSafeLockFreeQueueIlE6tryPopERl to i8*), i8* bitcast (i1 (%"class.MARC::ThreadSafeLockFreeQueue.115"*, i64*)* @_ZN4MARC23ThreadSafeLockFreeQueueIlE7waitPopERl to i8*), i8* bitcast (i1 (%"class.MARC::ThreadSafeLockFreeQueue.115"*)* @_ZN4MARC23ThreadSafeLockFreeQueueIlE7waitPopEv to i8*), i8* bitcast (void (%"class.MARC::ThreadSafeLockFreeQueue.115"*, i64)* @_ZN4MARC23ThreadSafeLockFreeQueueIlE4pushEl to i8*), i8* bitcast (i1 (%"class.MARC::ThreadSafeLockFreeQueue.115"*, i64, i64)* @_ZN4MARC23ThreadSafeLockFreeQueueIlE8waitPushEll to i8*), i8* bitcast (void (%"class.MARC::ThreadSafeLockFreeQueue.115"*)* @_ZN4MARC23ThreadSafeLockFreeQueueIlE5clearEv to i8*), i8* bitcast (i1 (%"class.MARC::ThreadSafeLockFreeQueue.115"*)* @_ZNK4MARC23ThreadSafeLockFreeQueueIlE5emptyEv to i8*), i8* bitcast (i64 (%"class.MARC::ThreadSafeLockFreeQueue.115"*)* @_ZNK4MARC23ThreadSafeLockFreeQueueIlE4sizeEv to i8*), i8* bitcast (i1 (%"class.MARC::ThreadSafeQueue.87"*)* @_ZNK4MARC15ThreadSafeQueueIlE7isValidEv to i8*), i8* bitcast (void (%"class.MARC::ThreadSafeQueue.87"*)* @_ZN4MARC15ThreadSafeQueueIlE10invalidateEv to i8*)] }, comdat, align 8
@_ZTVN4MARC15ThreadSafeQueueIlEE = linkonce_odr dso_local unnamed_addr constant { [12 x i8*] } { [12 x i8*] [i8* null, i8* bitcast ({ i8*, i8* }* @_ZTIN4MARC15ThreadSafeQueueIlEE to i8*), i8* bitcast (void ()* @__cxa_pure_virtual to i8*), i8* bitcast (void ()* @__cxa_pure_virtual to i8*), i8* bitcast (void ()* @__cxa_pure_virtual to i8*), i8* bitcast (void ()* @__cxa_pure_virtual to i8*), i8* bitcast (void ()* @__cxa_pure_virtual to i8*), i8* bitcast (void ()* @__cxa_pure_virtual to i8*), i8* bitcast (void ()* @__cxa_pure_virtual to i8*), i8* bitcast (void ()* @__cxa_pure_virtual to i8*), i8* bitcast (i1 (%"class.MARC::ThreadSafeQueue.87"*)* @_ZNK4MARC15ThreadSafeQueueIlE7isValidEv to i8*), i8* bitcast (void (%"class.MARC::ThreadSafeQueue.87"*)* @_ZN4MARC15ThreadSafeQueueIlE10invalidateEv to i8*)] }, comdat, align 8
@_ZTIN4MARC15ThreadSafeQueueIlEE = linkonce_odr dso_local constant { i8*, i8* } { i8* bitcast (i8** getelementptr inbounds (i8*, i8** @_ZTVN10__cxxabiv117__class_type_infoE, i64 2) to i8*), i8* getelementptr inbounds ([28 x i8], [28 x i8]* @_ZTSN4MARC15ThreadSafeQueueIlEE, i32 0, i32 0) }, comdat, align 8
@_ZTSN4MARC15ThreadSafeQueueIlEE = linkonce_odr dso_local constant [28 x i8] c"N4MARC15ThreadSafeQueueIlEE\00", comdat, align 1
@_ZTIN4MARC23ThreadSafeLockFreeQueueIlEE = linkonce_odr dso_local constant { i8*, i8*, i8* } { i8* bitcast (i8** getelementptr inbounds (i8*, i8** @_ZTVN10__cxxabiv120__si_class_type_infoE, i64 2) to i8*), i8* getelementptr inbounds ([36 x i8], [36 x i8]* @_ZTSN4MARC23ThreadSafeLockFreeQueueIlEE, i32 0, i32 0), i8* bitcast ({ i8*, i8* }* @_ZTIN4MARC15ThreadSafeQueueIlEE to i8*) }, comdat, align 8
@.str.30 = private unnamed_addr constant [8 x i8] c"success\00", align 1
@.str.24 = private unnamed_addr constant [71 x i8] c"../../include/threadpool/include/readerwriterqueue/readerwriterqueue.h\00", align 1
@__PRETTY_FUNCTION__._ZN10moodycamel25BlockingReaderWriterQueueIlLm512EE18wait_dequeue_timedIlEEbRT_l = private unnamed_addr constant [136 x i8] c"bool moodycamel::BlockingReaderWriterQueue<long, 512>::wait_dequeue_timed(U &, std::int64_t) [T = long, MAX_BLOCK_SIZE = 512, U = long]\00", align 1
@.str.33 = private unnamed_addr constant [120 x i8] c"!inSection && \22ReaderWriterQueue does not support enqueuing or dequeuing elements from other elements' ctors and dtors\22\00", align 1
@__PRETTY_FUNCTION__._ZN10moodycamel17ReaderWriterQueueIlLm512EE14ReentrantGuardC2ERb = private unnamed_addr constant [114 x i8] c"moodycamel::ReaderWriterQueue<long, 512>::ReentrantGuard::ReentrantGuard(bool &) [T = long, MAX_BLOCK_SIZE = 512]\00", align 1
@.str.31 = private unnamed_addr constant [32 x i8] c"nextBlockFront != nextBlockTail\00", align 1
@__PRETTY_FUNCTION__._ZN10moodycamel17ReaderWriterQueueIlLm512EE11try_dequeueIlEEbRT_ = private unnamed_addr constant [107 x i8] c"bool moodycamel::ReaderWriterQueue<long, 512>::try_dequeue(U &) [T = long, MAX_BLOCK_SIZE = 512, U = long]\00", align 1
@.str.37 = private unnamed_addr constant [15 x i8] c"oldCount >= -1\00", align 1
@.str.28 = private unnamed_addr constant [63 x i8] c"../../include/threadpool/include/readerwriterqueue/atomicops.h\00", align 1
@__PRETTY_FUNCTION__._ZN10moodycamel9spsc_sema20LightweightSemaphore6signalEl = private unnamed_addr constant [111 x i8] c"void moodycamel::spsc_sema::LightweightSemaphore::signal(moodycamel::spsc_sema::LightweightSemaphore::ssize_t)\00", align 1
@.str.34 = private unnamed_addr constant [32 x i8] c"nextBlockFront == nextBlockTail\00", align 1
@__PRETTY_FUNCTION__._ZN10moodycamel17ReaderWriterQueueIlLm512EE13inner_enqueueILNS1_14AllocationModeE0EJRKlEEEbDpOT0_ = private unnamed_addr constant [192 x i8] c"bool moodycamel::ReaderWriterQueue<long, 512>::inner_enqueue(Args &&...) [T = long, MAX_BLOCK_SIZE = 512, canAlloc = moodycamel::ReaderWriterQueue<long, 512>::CanAlloc, Args = <const long &>]\00", align 1
@.str.35 = private unnamed_addr constant [21 x i8] c"newBlock->front == 0\00", align 1
@__PRETTY_FUNCTION__._ZN10moodycamel25BlockingReaderWriterQueueIlLm512EE11try_dequeueIlEEbRT_ = private unnamed_addr constant [115 x i8] c"bool moodycamel::BlockingReaderWriterQueue<long, 512>::try_dequeue(U &) [T = long, MAX_BLOCK_SIZE = 512, U = long]\00", align 1
@_ZTSN4MARC23ThreadSafeLockFreeQueueIlEE = linkonce_odr dso_local constant [36 x i8] c"N4MARC23ThreadSafeLockFreeQueueIlEE\00", comdat, align 1
@_ZTVN4MARC23ThreadSafeLockFreeQueueIiEE = linkonce_odr dso_local unnamed_addr constant { [12 x i8*] } { [12 x i8*] [i8* null, i8* bitcast ({ i8*, i8*, i8* }* @_ZTIN4MARC23ThreadSafeLockFreeQueueIiEE to i8*), i8* bitcast (i1 (%"class.MARC::ThreadSafeLockFreeQueue.108"*, i32*)* @_ZN4MARC23ThreadSafeLockFreeQueueIiE6tryPopERi to i8*), i8* bitcast (i1 (%"class.MARC::ThreadSafeLockFreeQueue.108"*, i32*)* @_ZN4MARC23ThreadSafeLockFreeQueueIiE7waitPopERi to i8*), i8* bitcast (i1 (%"class.MARC::ThreadSafeLockFreeQueue.108"*)* @_ZN4MARC23ThreadSafeLockFreeQueueIiE7waitPopEv to i8*), i8* bitcast (void (%"class.MARC::ThreadSafeLockFreeQueue.108"*, i32)* @_ZN4MARC23ThreadSafeLockFreeQueueIiE4pushEi to i8*), i8* bitcast (i1 (%"class.MARC::ThreadSafeLockFreeQueue.108"*, i32, i64)* @_ZN4MARC23ThreadSafeLockFreeQueueIiE8waitPushEil to i8*), i8* bitcast (void (%"class.MARC::ThreadSafeLockFreeQueue.108"*)* @_ZN4MARC23ThreadSafeLockFreeQueueIiE5clearEv to i8*), i8* bitcast (i1 (%"class.MARC::ThreadSafeLockFreeQueue.108"*)* @_ZNK4MARC23ThreadSafeLockFreeQueueIiE5emptyEv to i8*), i8* bitcast (i64 (%"class.MARC::ThreadSafeLockFreeQueue.108"*)* @_ZNK4MARC23ThreadSafeLockFreeQueueIiE4sizeEv to i8*), i8* bitcast (i1 (%"class.MARC::ThreadSafeQueue.78"*)* @_ZNK4MARC15ThreadSafeQueueIiE7isValidEv to i8*), i8* bitcast (void (%"class.MARC::ThreadSafeQueue.78"*)* @_ZN4MARC15ThreadSafeQueueIiE10invalidateEv to i8*)] }, comdat, align 8
@_ZTVN4MARC15ThreadSafeQueueIiEE = linkonce_odr dso_local unnamed_addr constant { [12 x i8*] } { [12 x i8*] [i8* null, i8* bitcast ({ i8*, i8* }* @_ZTIN4MARC15ThreadSafeQueueIiEE to i8*), i8* bitcast (void ()* @__cxa_pure_virtual to i8*), i8* bitcast (void ()* @__cxa_pure_virtual to i8*), i8* bitcast (void ()* @__cxa_pure_virtual to i8*), i8* bitcast (void ()* @__cxa_pure_virtual to i8*), i8* bitcast (void ()* @__cxa_pure_virtual to i8*), i8* bitcast (void ()* @__cxa_pure_virtual to i8*), i8* bitcast (void ()* @__cxa_pure_virtual to i8*), i8* bitcast (void ()* @__cxa_pure_virtual to i8*), i8* bitcast (i1 (%"class.MARC::ThreadSafeQueue.78"*)* @_ZNK4MARC15ThreadSafeQueueIiE7isValidEv to i8*), i8* bitcast (void (%"class.MARC::ThreadSafeQueue.78"*)* @_ZN4MARC15ThreadSafeQueueIiE10invalidateEv to i8*)] }, comdat, align 8
@_ZTIN4MARC15ThreadSafeQueueIiEE = linkonce_odr dso_local constant { i8*, i8* } { i8* bitcast (i8** getelementptr inbounds (i8*, i8** @_ZTVN10__cxxabiv117__class_type_infoE, i64 2) to i8*), i8* getelementptr inbounds ([28 x i8], [28 x i8]* @_ZTSN4MARC15ThreadSafeQueueIiEE, i32 0, i32 0) }, comdat, align 8
@_ZTSN4MARC15ThreadSafeQueueIiEE = linkonce_odr dso_local constant [28 x i8] c"N4MARC15ThreadSafeQueueIiEE\00", comdat, align 1
@_ZTIN4MARC23ThreadSafeLockFreeQueueIiEE = linkonce_odr dso_local constant { i8*, i8*, i8* } { i8* bitcast (i8** getelementptr inbounds (i8*, i8** @_ZTVN10__cxxabiv120__si_class_type_infoE, i64 2) to i8*), i8* getelementptr inbounds ([36 x i8], [36 x i8]* @_ZTSN4MARC23ThreadSafeLockFreeQueueIiEE, i32 0, i32 0), i8* bitcast ({ i8*, i8* }* @_ZTIN4MARC15ThreadSafeQueueIiEE to i8*) }, comdat, align 8
@__PRETTY_FUNCTION__._ZN10moodycamel25BlockingReaderWriterQueueIiLm512EE18wait_dequeue_timedIiEEbRT_l = private unnamed_addr constant [133 x i8] c"bool moodycamel::BlockingReaderWriterQueue<int, 512>::wait_dequeue_timed(U &, std::int64_t) [T = int, MAX_BLOCK_SIZE = 512, U = int]\00", align 1
@__PRETTY_FUNCTION__._ZN10moodycamel17ReaderWriterQueueIiLm512EE14ReentrantGuardC2ERb = private unnamed_addr constant [112 x i8] c"moodycamel::ReaderWriterQueue<int, 512>::ReentrantGuard::ReentrantGuard(bool &) [T = int, MAX_BLOCK_SIZE = 512]\00", align 1
@__PRETTY_FUNCTION__._ZN10moodycamel17ReaderWriterQueueIiLm512EE11try_dequeueIiEEbRT_ = private unnamed_addr constant [104 x i8] c"bool moodycamel::ReaderWriterQueue<int, 512>::try_dequeue(U &) [T = int, MAX_BLOCK_SIZE = 512, U = int]\00", align 1
@__PRETTY_FUNCTION__._ZN10moodycamel17ReaderWriterQueueIiLm512EE13inner_enqueueILNS1_14AllocationModeE0EJRKiEEEbDpOT0_ = private unnamed_addr constant [188 x i8] c"bool moodycamel::ReaderWriterQueue<int, 512>::inner_enqueue(Args &&...) [T = int, MAX_BLOCK_SIZE = 512, canAlloc = moodycamel::ReaderWriterQueue<int, 512>::CanAlloc, Args = <const int &>]\00", align 1
@__PRETTY_FUNCTION__._ZN10moodycamel25BlockingReaderWriterQueueIiLm512EE11try_dequeueIiEEbRT_ = private unnamed_addr constant [112 x i8] c"bool moodycamel::BlockingReaderWriterQueue<int, 512>::try_dequeue(U &) [T = int, MAX_BLOCK_SIZE = 512, U = int]\00", align 1
@_ZTSN4MARC23ThreadSafeLockFreeQueueIiEE = linkonce_odr dso_local constant [36 x i8] c"N4MARC23ThreadSafeLockFreeQueueIiEE\00", comdat, align 1
@_ZTVN4MARC23ThreadSafeLockFreeQueueIsEE = linkonce_odr dso_local unnamed_addr constant { [12 x i8*] } { [12 x i8*] [i8* null, i8* bitcast ({ i8*, i8*, i8* }* @_ZTIN4MARC23ThreadSafeLockFreeQueueIsEE to i8*), i8* bitcast (i1 (%"class.MARC::ThreadSafeLockFreeQueue.101"*, i16*)* @_ZN4MARC23ThreadSafeLockFreeQueueIsE6tryPopERs to i8*), i8* bitcast (i1 (%"class.MARC::ThreadSafeLockFreeQueue.101"*, i16*)* @_ZN4MARC23ThreadSafeLockFreeQueueIsE7waitPopERs to i8*), i8* bitcast (i1 (%"class.MARC::ThreadSafeLockFreeQueue.101"*)* @_ZN4MARC23ThreadSafeLockFreeQueueIsE7waitPopEv to i8*), i8* bitcast (void (%"class.MARC::ThreadSafeLockFreeQueue.101"*, i16)* @_ZN4MARC23ThreadSafeLockFreeQueueIsE4pushEs to i8*), i8* bitcast (i1 (%"class.MARC::ThreadSafeLockFreeQueue.101"*, i16, i64)* @_ZN4MARC23ThreadSafeLockFreeQueueIsE8waitPushEsl to i8*), i8* bitcast (void (%"class.MARC::ThreadSafeLockFreeQueue.101"*)* @_ZN4MARC23ThreadSafeLockFreeQueueIsE5clearEv to i8*), i8* bitcast (i1 (%"class.MARC::ThreadSafeLockFreeQueue.101"*)* @_ZNK4MARC23ThreadSafeLockFreeQueueIsE5emptyEv to i8*), i8* bitcast (i64 (%"class.MARC::ThreadSafeLockFreeQueue.101"*)* @_ZNK4MARC23ThreadSafeLockFreeQueueIsE4sizeEv to i8*), i8* bitcast (i1 (%"class.MARC::ThreadSafeQueue.69"*)* @_ZNK4MARC15ThreadSafeQueueIsE7isValidEv to i8*), i8* bitcast (void (%"class.MARC::ThreadSafeQueue.69"*)* @_ZN4MARC15ThreadSafeQueueIsE10invalidateEv to i8*)] }, comdat, align 8
@_ZTVN4MARC15ThreadSafeQueueIsEE = linkonce_odr dso_local unnamed_addr constant { [12 x i8*] } { [12 x i8*] [i8* null, i8* bitcast ({ i8*, i8* }* @_ZTIN4MARC15ThreadSafeQueueIsEE to i8*), i8* bitcast (void ()* @__cxa_pure_virtual to i8*), i8* bitcast (void ()* @__cxa_pure_virtual to i8*), i8* bitcast (void ()* @__cxa_pure_virtual to i8*), i8* bitcast (void ()* @__cxa_pure_virtual to i8*), i8* bitcast (void ()* @__cxa_pure_virtual to i8*), i8* bitcast (void ()* @__cxa_pure_virtual to i8*), i8* bitcast (void ()* @__cxa_pure_virtual to i8*), i8* bitcast (void ()* @__cxa_pure_virtual to i8*), i8* bitcast (i1 (%"class.MARC::ThreadSafeQueue.69"*)* @_ZNK4MARC15ThreadSafeQueueIsE7isValidEv to i8*), i8* bitcast (void (%"class.MARC::ThreadSafeQueue.69"*)* @_ZN4MARC15ThreadSafeQueueIsE10invalidateEv to i8*)] }, comdat, align 8
@_ZTIN4MARC15ThreadSafeQueueIsEE = linkonce_odr dso_local constant { i8*, i8* } { i8* bitcast (i8** getelementptr inbounds (i8*, i8** @_ZTVN10__cxxabiv117__class_type_infoE, i64 2) to i8*), i8* getelementptr inbounds ([28 x i8], [28 x i8]* @_ZTSN4MARC15ThreadSafeQueueIsEE, i32 0, i32 0) }, comdat, align 8
@_ZTSN4MARC15ThreadSafeQueueIsEE = linkonce_odr dso_local constant [28 x i8] c"N4MARC15ThreadSafeQueueIsEE\00", comdat, align 1
@_ZTIN4MARC23ThreadSafeLockFreeQueueIsEE = linkonce_odr dso_local constant { i8*, i8*, i8* } { i8* bitcast (i8** getelementptr inbounds (i8*, i8** @_ZTVN10__cxxabiv120__si_class_type_infoE, i64 2) to i8*), i8* getelementptr inbounds ([36 x i8], [36 x i8]* @_ZTSN4MARC23ThreadSafeLockFreeQueueIsEE, i32 0, i32 0), i8* bitcast ({ i8*, i8* }* @_ZTIN4MARC15ThreadSafeQueueIsEE to i8*) }, comdat, align 8
@__PRETTY_FUNCTION__._ZN10moodycamel25BlockingReaderWriterQueueIsLm512EE18wait_dequeue_timedIsEEbRT_l = private unnamed_addr constant [139 x i8] c"bool moodycamel::BlockingReaderWriterQueue<short, 512>::wait_dequeue_timed(U &, std::int64_t) [T = short, MAX_BLOCK_SIZE = 512, U = short]\00", align 1
@__PRETTY_FUNCTION__._ZN10moodycamel17ReaderWriterQueueIsLm512EE14ReentrantGuardC2ERb = private unnamed_addr constant [116 x i8] c"moodycamel::ReaderWriterQueue<short, 512>::ReentrantGuard::ReentrantGuard(bool &) [T = short, MAX_BLOCK_SIZE = 512]\00", align 1
@__PRETTY_FUNCTION__._ZN10moodycamel17ReaderWriterQueueIsLm512EE11try_dequeueIsEEbRT_ = private unnamed_addr constant [110 x i8] c"bool moodycamel::ReaderWriterQueue<short, 512>::try_dequeue(U &) [T = short, MAX_BLOCK_SIZE = 512, U = short]\00", align 1
@__PRETTY_FUNCTION__._ZN10moodycamel17ReaderWriterQueueIsLm512EE13inner_enqueueILNS1_14AllocationModeE0EJRKsEEEbDpOT0_ = private unnamed_addr constant [196 x i8] c"bool moodycamel::ReaderWriterQueue<short, 512>::inner_enqueue(Args &&...) [T = short, MAX_BLOCK_SIZE = 512, canAlloc = moodycamel::ReaderWriterQueue<short, 512>::CanAlloc, Args = <const short &>]\00", align 1
@__PRETTY_FUNCTION__._ZN10moodycamel25BlockingReaderWriterQueueIsLm512EE11try_dequeueIsEEbRT_ = private unnamed_addr constant [118 x i8] c"bool moodycamel::BlockingReaderWriterQueue<short, 512>::try_dequeue(U &) [T = short, MAX_BLOCK_SIZE = 512, U = short]\00", align 1
@_ZTSN4MARC23ThreadSafeLockFreeQueueIsEE = linkonce_odr dso_local constant [36 x i8] c"N4MARC23ThreadSafeLockFreeQueueIsEE\00", comdat, align 1
@_ZTVN4MARC23ThreadSafeLockFreeQueueIaEE = linkonce_odr dso_local unnamed_addr constant { [12 x i8*] } { [12 x i8*] [i8* null, i8* bitcast ({ i8*, i8*, i8* }* @_ZTIN4MARC23ThreadSafeLockFreeQueueIaEE to i8*), i8* bitcast (i1 (%"class.MARC::ThreadSafeLockFreeQueue"*, i8*)* @_ZN4MARC23ThreadSafeLockFreeQueueIaE6tryPopERa to i8*), i8* bitcast (i1 (%"class.MARC::ThreadSafeLockFreeQueue"*, i8*)* @_ZN4MARC23ThreadSafeLockFreeQueueIaE7waitPopERa to i8*), i8* bitcast (i1 (%"class.MARC::ThreadSafeLockFreeQueue"*)* @_ZN4MARC23ThreadSafeLockFreeQueueIaE7waitPopEv to i8*), i8* bitcast (void (%"class.MARC::ThreadSafeLockFreeQueue"*, i8)* @_ZN4MARC23ThreadSafeLockFreeQueueIaE4pushEa to i8*), i8* bitcast (i1 (%"class.MARC::ThreadSafeLockFreeQueue"*, i8, i64)* @_ZN4MARC23ThreadSafeLockFreeQueueIaE8waitPushEal to i8*), i8* bitcast (void (%"class.MARC::ThreadSafeLockFreeQueue"*)* @_ZN4MARC23ThreadSafeLockFreeQueueIaE5clearEv to i8*), i8* bitcast (i1 (%"class.MARC::ThreadSafeLockFreeQueue"*)* @_ZNK4MARC23ThreadSafeLockFreeQueueIaE5emptyEv to i8*), i8* bitcast (i64 (%"class.MARC::ThreadSafeLockFreeQueue"*)* @_ZNK4MARC23ThreadSafeLockFreeQueueIaE4sizeEv to i8*), i8* bitcast (i1 (%"class.MARC::ThreadSafeQueue.60"*)* @_ZNK4MARC15ThreadSafeQueueIaE7isValidEv to i8*), i8* bitcast (void (%"class.MARC::ThreadSafeQueue.60"*)* @_ZN4MARC15ThreadSafeQueueIaE10invalidateEv to i8*)] }, comdat, align 8
@_ZTVN4MARC15ThreadSafeQueueIaEE = linkonce_odr dso_local unnamed_addr constant { [12 x i8*] } { [12 x i8*] [i8* null, i8* bitcast ({ i8*, i8* }* @_ZTIN4MARC15ThreadSafeQueueIaEE to i8*), i8* bitcast (void ()* @__cxa_pure_virtual to i8*), i8* bitcast (void ()* @__cxa_pure_virtual to i8*), i8* bitcast (void ()* @__cxa_pure_virtual to i8*), i8* bitcast (void ()* @__cxa_pure_virtual to i8*), i8* bitcast (void ()* @__cxa_pure_virtual to i8*), i8* bitcast (void ()* @__cxa_pure_virtual to i8*), i8* bitcast (void ()* @__cxa_pure_virtual to i8*), i8* bitcast (void ()* @__cxa_pure_virtual to i8*), i8* bitcast (i1 (%"class.MARC::ThreadSafeQueue.60"*)* @_ZNK4MARC15ThreadSafeQueueIaE7isValidEv to i8*), i8* bitcast (void (%"class.MARC::ThreadSafeQueue.60"*)* @_ZN4MARC15ThreadSafeQueueIaE10invalidateEv to i8*)] }, comdat, align 8
@_ZTIN4MARC15ThreadSafeQueueIaEE = linkonce_odr dso_local constant { i8*, i8* } { i8* bitcast (i8** getelementptr inbounds (i8*, i8** @_ZTVN10__cxxabiv117__class_type_infoE, i64 2) to i8*), i8* getelementptr inbounds ([28 x i8], [28 x i8]* @_ZTSN4MARC15ThreadSafeQueueIaEE, i32 0, i32 0) }, comdat, align 8
@_ZTSN4MARC15ThreadSafeQueueIaEE = linkonce_odr dso_local constant [28 x i8] c"N4MARC15ThreadSafeQueueIaEE\00", comdat, align 1
@_ZTIN4MARC23ThreadSafeLockFreeQueueIaEE = linkonce_odr dso_local constant { i8*, i8*, i8* } { i8* bitcast (i8** getelementptr inbounds (i8*, i8** @_ZTVN10__cxxabiv120__si_class_type_infoE, i64 2) to i8*), i8* getelementptr inbounds ([36 x i8], [36 x i8]* @_ZTSN4MARC23ThreadSafeLockFreeQueueIaEE, i32 0, i32 0), i8* bitcast ({ i8*, i8* }* @_ZTIN4MARC15ThreadSafeQueueIaEE to i8*) }, comdat, align 8
@__PRETTY_FUNCTION__._ZN10moodycamel25BlockingReaderWriterQueueIaLm512EE18wait_dequeue_timedIaEEbRT_l = private unnamed_addr constant [157 x i8] c"bool moodycamel::BlockingReaderWriterQueue<signed char, 512>::wait_dequeue_timed(U &, std::int64_t) [T = signed char, MAX_BLOCK_SIZE = 512, U = signed char]\00", align 1
@__PRETTY_FUNCTION__._ZN10moodycamel17ReaderWriterQueueIaLm512EE14ReentrantGuardC2ERb = private unnamed_addr constant [128 x i8] c"moodycamel::ReaderWriterQueue<signed char, 512>::ReentrantGuard::ReentrantGuard(bool &) [T = signed char, MAX_BLOCK_SIZE = 512]\00", align 1
@__PRETTY_FUNCTION__._ZN10moodycamel17ReaderWriterQueueIaLm512EE11try_dequeueIaEEbRT_ = private unnamed_addr constant [128 x i8] c"bool moodycamel::ReaderWriterQueue<signed char, 512>::try_dequeue(U &) [T = signed char, MAX_BLOCK_SIZE = 512, U = signed char]\00", align 1
@__PRETTY_FUNCTION__._ZN10moodycamel17ReaderWriterQueueIaLm512EE13inner_enqueueILNS1_14AllocationModeE0EJRKaEEEbDpOT0_ = private unnamed_addr constant [220 x i8] c"bool moodycamel::ReaderWriterQueue<signed char, 512>::inner_enqueue(Args &&...) [T = signed char, MAX_BLOCK_SIZE = 512, canAlloc = moodycamel::ReaderWriterQueue<signed char, 512>::CanAlloc, Args = <const signed char &>]\00", align 1
@__PRETTY_FUNCTION__._ZN10moodycamel25BlockingReaderWriterQueueIaLm512EE11try_dequeueIaEEbRT_ = private unnamed_addr constant [136 x i8] c"bool moodycamel::BlockingReaderWriterQueue<signed char, 512>::try_dequeue(U &) [T = signed char, MAX_BLOCK_SIZE = 512, U = signed char]\00", align 1
@_ZTSN4MARC23ThreadSafeLockFreeQueueIaEE = linkonce_odr dso_local constant [36 x i8] c"N4MARC23ThreadSafeLockFreeQueueIaEE\00", comdat, align 1
@_ZTVSt9bad_alloc = external dso_local unnamed_addr constant { [5 x i8*] }, align 8
@_ZTISt9bad_alloc = external dso_local constant i8*

@_ZN4MARC11ThreadCTaskC1Em = dso_local unnamed_addr alias void (%"class.MARC::ThreadCTask"*, i64), void (%"class.MARC::ThreadCTask"*, i64)* @_ZN4MARC11ThreadCTaskC2Em
@_ZN4MARC11ThreadCTaskC1EmPFvPvES1_ = dso_local unnamed_addr alias void (%"class.MARC::ThreadCTask"*, i64, void (i8*)*, i8*), void (%"class.MARC::ThreadCTask"*, i64, void (i8*)*, i8*)* @_ZN4MARC11ThreadCTaskC2EmPFvPvES1_
@_ZN4MARC11ThreadCTaskC1Em9cpu_set_tPFvPvES2_ = dso_local unnamed_addr alias void (%"class.MARC::ThreadCTask"*, i64, %struct.cpu_set_t*, void (i8*)*, i8*), void (%"class.MARC::ThreadCTask"*, i64, %struct.cpu_set_t*, void (i8*)*, i8*)* @_ZN4MARC11ThreadCTaskC2Em9cpu_set_tPFvPvES2_
@_ZN4MARC19ThreadPoolInterfaceD1Ev = dso_local unnamed_addr alias void (%"class.MARC::ThreadPoolInterface"*), void (%"class.MARC::ThreadPoolInterface"*)* @_ZN4MARC19ThreadPoolInterfaceD2Ev
@_ZN4MARC10ThreadPoolC1Ev = dso_local unnamed_addr alias void (%"class.MARC::ThreadPool"*), void (%"class.MARC::ThreadPool"*)* @_ZN4MARC10ThreadPoolC2Ev
@_ZN4MARC10ThreadPoolC1EbjSt8functionIFvvEE = dso_local unnamed_addr alias void (%"class.MARC::ThreadPool"*, i1, i32, %"class.std::function"*), void (%"class.MARC::ThreadPool"*, i1, i32, %"class.std::function"*)* @_ZN4MARC10ThreadPoolC2EbjSt8functionIFvvEE
@_ZN4MARC10ThreadPoolD1Ev = dso_local unnamed_addr alias void (%"class.MARC::ThreadPool"*), void (%"class.MARC::ThreadPool"*)* @_ZN4MARC10ThreadPoolD2Ev
@_ZN4MARC14ThreadPoolForCD1Ev = dso_local unnamed_addr alias void (%"class.MARC::ThreadPoolForC"*), void (%"class.MARC::ThreadPoolForC"*)* @_ZN4MARC14ThreadPoolForCD2Ev
@_ZN4MARC25ThreadPoolForCSingleQueueC1Ev = dso_local unnamed_addr alias void (%"class.MARC::ThreadPoolForCSingleQueue"*), void (%"class.MARC::ThreadPoolForCSingleQueue"*)* @_ZN4MARC25ThreadPoolForCSingleQueueC2Ev
@_ZN4MARC25ThreadPoolForCSingleQueueC1EbjSt8functionIFvvEE = dso_local unnamed_addr alias void (%"class.MARC::ThreadPoolForCSingleQueue"*, i1, i32, %"class.std::function"*), void (%"class.MARC::ThreadPoolForCSingleQueue"*, i1, i32, %"class.std::function"*)* @_ZN4MARC25ThreadPoolForCSingleQueueC2EbjSt8functionIFvvEE
@_ZN4MARC25ThreadPoolForCSingleQueueD1Ev = dso_local unnamed_addr alias void (%"class.MARC::ThreadPoolForCSingleQueue"*), void (%"class.MARC::ThreadPoolForCSingleQueue"*)* @_ZN4MARC25ThreadPoolForCSingleQueueD2Ev
@_ZN4MARC25ThreadPoolForCMultiQueuesC1Ev = dso_local unnamed_addr alias void (%"class.MARC::ThreadPoolForCMultiQueues"*), void (%"class.MARC::ThreadPoolForCMultiQueues"*)* @_ZN4MARC25ThreadPoolForCMultiQueuesC2Ev
@_ZN4MARC25ThreadPoolForCMultiQueuesC1EbjSt8functionIFvvEE = dso_local unnamed_addr alias void (%"class.MARC::ThreadPoolForCMultiQueues"*, i1, i32, %"class.std::function"*), void (%"class.MARC::ThreadPoolForCMultiQueues"*, i1, i32, %"class.std::function"*)* @_ZN4MARC25ThreadPoolForCMultiQueuesC2EbjSt8functionIFvvEE
@_ZN4MARC25ThreadPoolForCMultiQueuesD1Ev = dso_local unnamed_addr alias void (%"class.MARC::ThreadPoolForCMultiQueues"*), void (%"class.MARC::ThreadPoolForCMultiQueues"*)* @_ZN4MARC25ThreadPoolForCMultiQueuesD2Ev
@_ZN13NoelleRuntimeC1Ev = dso_local unnamed_addr alias void (%class.NoelleRuntime*), void (%class.NoelleRuntime*)* @_ZN13NoelleRuntimeC2Ev
@_ZN13NoelleRuntimeD1Ev = dso_local unnamed_addr alias void (%class.NoelleRuntime*), void (%class.NoelleRuntime*)* @_ZN13NoelleRuntimeD2Ev

; Function Attrs: cold nounwind uwtable
define dso_local i32 @main(i32, i8** nocapture readnone) local_unnamed_addr #0 {
  %3 = alloca double, align 8
  %noelle.loop_environment.i = alloca [32 x i64], align 8
  %4 = alloca double, align 8
  %noelle.loop_environment5 = alloca [40 x i64], align 8
  %5 = bitcast [40 x i64]* %noelle.loop_environment5 to i8*
  %6 = getelementptr inbounds [40 x i64], [40 x i64]* %noelle.loop_environment5, i64 0, i64 8
  %7 = bitcast i64* %6 to [512 x [18 x %struct.dcomplex]]**
  %8 = getelementptr inbounds [40 x i64], [40 x i64]* %noelle.loop_environment5, i64 0, i64 24
  %noelle.loop_environment4 = alloca [40 x i64], align 8
  %9 = bitcast [40 x i64]* %noelle.loop_environment4 to i8*
  %10 = getelementptr inbounds [40 x i64], [40 x i64]* %noelle.loop_environment4, i64 0, i64 8
  %11 = bitcast i64* %10 to [512 x [18 x %struct.dcomplex]]**
  %12 = getelementptr inbounds [40 x i64], [40 x i64]* %noelle.loop_environment4, i64 0, i64 24
  %noelle.loop_environment3 = alloca [40 x i64], align 8
  %13 = bitcast [40 x i64]* %noelle.loop_environment3 to i8*
  %14 = getelementptr inbounds [40 x i64], [40 x i64]* %noelle.loop_environment3, i64 0, i64 8
  %15 = bitcast i64* %14 to [512 x [18 x %struct.dcomplex]]**
  %16 = getelementptr inbounds [40 x i64], [40 x i64]* %noelle.loop_environment3, i64 0, i64 24
  %noelle.loop_environment2 = alloca [40 x i64], align 8
  %17 = bitcast [40 x i64]* %noelle.loop_environment2 to i8*
  %18 = getelementptr inbounds [40 x i64], [40 x i64]* %noelle.loop_environment2, i64 0, i64 8
  %19 = getelementptr inbounds [40 x i64], [40 x i64]* %noelle.loop_environment2, i64 0, i64 24
  %noelle.loop_environment1 = alloca [40 x i64], align 8
  %20 = bitcast [40 x i64]* %noelle.loop_environment1 to i8*
  %21 = getelementptr inbounds [40 x i64], [40 x i64]* %noelle.loop_environment1, i64 0, i64 8
  %22 = bitcast i64* %21 to [512 x [18 x %struct.dcomplex]]**
  %23 = getelementptr inbounds [40 x i64], [40 x i64]* %noelle.loop_environment1, i64 0, i64 24
  %noelle.loop_environment = alloca [40 x i64], align 8
  %24 = bitcast [40 x i64]* %noelle.loop_environment to i8*
  %25 = getelementptr inbounds [40 x i64], [40 x i64]* %noelle.loop_environment, i64 0, i64 8
  %26 = getelementptr inbounds [40 x i64], [40 x i64]* %noelle.loop_environment, i64 0, i64 24
  %27 = alloca [512 x [18 x %struct.dcomplex]], align 16
  %28 = alloca [512 x [18 x %struct.dcomplex]], align 16
  %29 = alloca [512 x [18 x %struct.dcomplex]], align 16
  tail call void @llvm.memset.p0i8.i64(i8* align 16 bitcast ([64 x double]* @elapsed to i8*), i8 0, i64 56, i1 false)
  %30 = getelementptr inbounds [40 x i64], [40 x i64]* %noelle.loop_environment5, i64 0, i64 0
  %31 = getelementptr inbounds [40 x i64], [40 x i64]* %noelle.loop_environment5, i64 0, i64 16
  %32 = getelementptr inbounds [40 x i64], [40 x i64]* %noelle.loop_environment5, i64 0, i64 32
  %33 = getelementptr inbounds [40 x i64], [40 x i64]* %noelle.loop_environment4, i64 0, i64 0
  %34 = getelementptr inbounds [40 x i64], [40 x i64]* %noelle.loop_environment4, i64 0, i64 16
  %35 = getelementptr inbounds [40 x i64], [40 x i64]* %noelle.loop_environment4, i64 0, i64 32
  %36 = getelementptr inbounds [40 x i64], [40 x i64]* %noelle.loop_environment3, i64 0, i64 0
  %37 = getelementptr inbounds [40 x i64], [40 x i64]* %noelle.loop_environment3, i64 0, i64 16
  %38 = getelementptr inbounds [40 x i64], [40 x i64]* %noelle.loop_environment3, i64 0, i64 32
  %39 = bitcast [40 x i64]* %noelle.loop_environment2 to [512 x [18 x %struct.dcomplex]]**
  %40 = getelementptr inbounds [40 x i64], [40 x i64]* %noelle.loop_environment2, i64 0, i64 16
  %41 = getelementptr inbounds [40 x i64], [40 x i64]* %noelle.loop_environment2, i64 0, i64 32
  %42 = getelementptr inbounds [40 x i64], [40 x i64]* %noelle.loop_environment1, i64 0, i64 0
  %43 = getelementptr inbounds [40 x i64], [40 x i64]* %noelle.loop_environment1, i64 0, i64 16
  %44 = getelementptr inbounds [40 x i64], [40 x i64]* %noelle.loop_environment1, i64 0, i64 32
  %45 = bitcast [40 x i64]* %noelle.loop_environment to [512 x [18 x %struct.dcomplex]]**
  %46 = getelementptr inbounds [40 x i64], [40 x i64]* %noelle.loop_environment, i64 0, i64 16
  %47 = getelementptr inbounds [40 x i64], [40 x i64]* %noelle.loop_environment, i64 0, i64 32
  tail call fastcc void @setup()
  %.pre.i.b = load i1, i1* @dims.2.0, align 8
  %48 = select i1 %.pre.i.b, i64 512, i64 0
  %.pre4.i.b = load i1, i1* @dims.2.1, align 8
  %49 = select i1 %.pre4.i.b, i64 256, i64 0
  %.pre5.i.b = load i1, i1* @dims.2.2, align 8
  %50 = select i1 %.pre5.i.b, i64 256, i64 0
  br i1 %.pre.i.b, label %.lr.ph6.i, label %.loopexit3._crit_edge.i

.lr.ph6.i:                                        ; preds = %2
  %.b176 = load i1, i1* @ystart.2, align 4
  %.b172 = load i1, i1* @xstart.2, align 4
  %51 = select i1 %.b172, i32 255, i32 254
  %52 = select i1 %.b176, i32 127, i32 126
  %or.cond = and i1 %.pre4.i.b, %.pre5.i.b
  br i1 %or.cond, label %.lr.ph6.split.us.i.us.preheader, label %.loopexit3._crit_edge.i

.lr.ph6.split.us.i.us.preheader:                  ; preds = %.lr.ph6.i
  %.b180 = load i1, i1* @zstart.2, align 4
  %53 = select i1 %.b180, i32 127, i32 126
  %broadcast.splatinsert = insertelement <4 x i32> undef, i32 %53, i32 0
  %54 = add <4 x i32> %broadcast.splatinsert, <i32 1, i32 undef, i32 undef, i32 undef>
  %55 = shufflevector <4 x i32> %54, <4 x i32> undef, <4 x i32> zeroinitializer
  br label %.lr.ph.us.us.i.us.us.preheader

.lr.ph.us.us.i.us.us.preheader:                   ; preds = %.loopexit..loopexit3.loopexit_crit_edge.us.i.loopexit.us, %.lr.ph6.split.us.i.us.preheader
  %indvars.iv105.us.i.us = phi i64 [ %indvars.iv.next11.us.i.us, %.loopexit..loopexit3.loopexit_crit_edge.us.i.loopexit.us ], [ 0, %.lr.ph6.split.us.i.us.preheader ]
  %indvars.iv.next11.us.i.us = add nuw nsw i64 %indvars.iv105.us.i.us, 1
  %56 = trunc i64 %indvars.iv.next11.us.i.us to i32
  %57 = add i32 %51, %56
  %58 = srem i32 %57, 512
  %59 = add nsw i32 %58, -256
  %60 = mul nsw i32 %59, %59
  br label %.lr.ph.us.us.i.us.us

.lr.ph.us.us.i.us.us:                             ; preds = %.lr.ph.us.us.i.us.us.preheader, %..loopexit.loopexit_crit_edge.us.us.i.us.loopexit.us
  %indvars.iv83.us.us.i.us.us = phi i64 [ %indvars.iv.next9.us.us.i.us.us, %..loopexit.loopexit_crit_edge.us.us.i.us.loopexit.us ], [ 0, %.lr.ph.us.us.i.us.us.preheader ]
  %indvars.iv.next9.us.us.i.us.us = add nuw nsw i64 %indvars.iv83.us.us.i.us.us, 1
  %61 = trunc i64 %indvars.iv.next9.us.us.i.us.us to i32
  %62 = add i32 %52, %61
  %63 = srem i32 %62, 256
  %64 = add nsw i32 %63, -128
  %65 = mul nsw i32 %64, %64
  %66 = add nuw nsw i32 %65, %60
  %broadcast.splatinsert206.us = insertelement <4 x i32> undef, i32 %66, i32 0
  %broadcast.splat207.us = shufflevector <4 x i32> %broadcast.splatinsert206.us, <4 x i32> undef, <4 x i32> zeroinitializer
  br label %vector.body.us

vector.body.us:                                   ; preds = %vector.body.us, %.lr.ph.us.us.i.us.us
  %index.us = phi i64 [ 0, %.lr.ph.us.us.i.us.us ], [ %index.next.us, %vector.body.us ]
  %vec.ind.us = phi <4 x i64> [ <i64 0, i64 1, i64 2, i64 3>, %.lr.ph.us.us.i.us.us ], [ %vec.ind.next.us, %vector.body.us ]
  %67 = or i64 %index.us, 1
  %68 = or i64 %index.us, 2
  %69 = or i64 %index.us, 3
  %70 = trunc <4 x i64> %vec.ind.us to <4 x i32>
  %71 = add <4 x i32> %55, %70
  %72 = srem <4 x i32> %71, <i32 256, i32 256, i32 256, i32 256>
  %73 = add nsw <4 x i32> %72, <i32 -128, i32 -128, i32 -128, i32 -128>
  %74 = mul nsw <4 x i32> %73, %73
  %75 = add nuw nsw <4 x i32> %74, %broadcast.splat207.us
  %76 = getelementptr inbounds [256 x [256 x [512 x i32]]], [256 x [256 x [512 x i32]]]* @main.indexmap, i64 0, i64 %index.us, i64 %indvars.iv83.us.us.i.us.us, i64 %indvars.iv105.us.i.us
  %77 = getelementptr inbounds [256 x [256 x [512 x i32]]], [256 x [256 x [512 x i32]]]* @main.indexmap, i64 0, i64 %67, i64 %indvars.iv83.us.us.i.us.us, i64 %indvars.iv105.us.i.us
  %78 = getelementptr inbounds [256 x [256 x [512 x i32]]], [256 x [256 x [512 x i32]]]* @main.indexmap, i64 0, i64 %68, i64 %indvars.iv83.us.us.i.us.us, i64 %indvars.iv105.us.i.us
  %79 = getelementptr inbounds [256 x [256 x [512 x i32]]], [256 x [256 x [512 x i32]]]* @main.indexmap, i64 0, i64 %69, i64 %indvars.iv83.us.us.i.us.us, i64 %indvars.iv105.us.i.us
  %80 = extractelement <4 x i32> %75, i32 0
  store i32 %80, i32* %76, align 4, !tbaa !2
  %81 = extractelement <4 x i32> %75, i32 1
  store i32 %81, i32* %77, align 4, !tbaa !2
  %82 = extractelement <4 x i32> %75, i32 2
  store i32 %82, i32* %78, align 4, !tbaa !2
  %83 = extractelement <4 x i32> %75, i32 3
  store i32 %83, i32* %79, align 4, !tbaa !2
  %index.next.us = add i64 %index.us, 4
  %vec.ind.next.us = add <4 x i64> %vec.ind.us, <i64 4, i64 4, i64 4, i64 4>
  %84 = icmp eq i64 %index.next.us, %50
  br i1 %84, label %..loopexit.loopexit_crit_edge.us.us.i.us.loopexit.us, label %vector.body.us, !llvm.loop !6

..loopexit.loopexit_crit_edge.us.us.i.us.loopexit.us: ; preds = %vector.body.us
  %exitcond20.i.us.us = icmp eq i64 %indvars.iv.next9.us.us.i.us.us, %49
  br i1 %exitcond20.i.us.us, label %.loopexit..loopexit3.loopexit_crit_edge.us.i.loopexit.us, label %.lr.ph.us.us.i.us.us

.loopexit..loopexit3.loopexit_crit_edge.us.i.loopexit.us: ; preds = %..loopexit.loopexit_crit_edge.us.us.i.us.loopexit.us
  %exitcond21.i.us = icmp eq i64 %indvars.iv.next11.us.i.us, %48
  br i1 %exitcond21.i.us, label %.loopexit3._crit_edge.i, label %.lr.ph.us.us.i.us.us.preheader

.loopexit3._crit_edge.i:                          ; preds = %.loopexit..loopexit3.loopexit_crit_edge.us.i.loopexit.us, %.lr.ph6.i, %2
  store <2 x double> <double 1.000000e+00, double 0x3FEFFFAD359AB364>, <2 x double>* bitcast ([1966081 x double]* @ex to <2 x double>*), align 16, !tbaa !8
  store <2 x double> <double 0x3FEFFF5A6C0B990F, double 0x3FEFFF07A352AED7>, <2 x double>* bitcast (double* getelementptr inbounds ([1966081 x double], [1966081 x double]* @ex, i64 0, i64 2) to <2 x double>*), align 16, !tbaa !8
  br label %._crit_edge.i13.._crit_edge.i13_crit_edge

._crit_edge.i13.._crit_edge.i13_crit_edge:        ; preds = %._crit_edge.i13.._crit_edge.i13_crit_edge.1, %.loopexit3._crit_edge.i
  %.pre23.i.pre = phi double [ 0x3FEFFFAD359AB364, %.loopexit3._crit_edge.i ], [ %.pre23.i.pre.1.1, %._crit_edge.i13.._crit_edge.i13_crit_edge.1 ]
  %indvars.iv.next.i11205 = phi i64 [ 4, %.loopexit3._crit_edge.i ], [ %indvars.iv.next.i11.2.1, %._crit_edge.i13.._crit_edge.i13_crit_edge.1 ]
  %85 = phi double [ 0x3FEFFF07A352AED7, %.loopexit3._crit_edge.i ], [ %522, %._crit_edge.i13.._crit_edge.i13_crit_edge.1 ]
  %86 = fmul double %85, %.pre23.i.pre
  %87 = getelementptr inbounds [1966081 x double], [1966081 x double]* @ex, i64 0, i64 %indvars.iv.next.i11205
  store double %86, double* %87, align 16, !tbaa !8
  %indvars.iv.next.i11 = or i64 %indvars.iv.next.i11205, 1
  %.pre23.i.pre.1 = load double, double* getelementptr inbounds ([1966081 x double], [1966081 x double]* @ex, i64 0, i64 1), align 8, !tbaa !8
  %88 = fmul double %86, %.pre23.i.pre.1
  %89 = getelementptr inbounds [1966081 x double], [1966081 x double]* @ex, i64 0, i64 %indvars.iv.next.i11
  store double %88, double* %89, align 8, !tbaa !8
  %indvars.iv.next.i11.1 = add nuw nsw i64 %indvars.iv.next.i11205, 2
  %90 = fmul double %.pre23.i.pre.1, %88
  %91 = getelementptr inbounds [1966081 x double], [1966081 x double]* @ex, i64 0, i64 %indvars.iv.next.i11.1
  store double %90, double* %91, align 16, !tbaa !8
  %indvars.iv.next.i11.2 = add nuw nsw i64 %indvars.iv.next.i11205, 3
  %exitcond.i12.2 = icmp eq i64 %indvars.iv.next.i11.2, 1966081
  br i1 %exitcond.i12.2, label %compute_indexmap.exit, label %._crit_edge.i13.._crit_edge.i13_crit_edge.1

compute_indexmap.exit:                            ; preds = %._crit_edge.i13.._crit_edge.i13_crit_edge
  tail call fastcc void @compute_initial_conditions()
  %.b186 = load i1, i1* @dims.0.0, align 16
  %92 = select i1 %.b186, i32 512, i32 0
  tail call fastcc void @fft_init(i32 %92)
  tail call fastcc void @fft()
  tail call void @llvm.memset.p0i8.i64(i8* align 16 bitcast ([64 x double]* @elapsed to i8*), i8 0, i64 56, i1 false)
  %93 = bitcast double* %3 to i8*
  call void @llvm.lifetime.start.p0i8(i64 8, i8* nonnull %93) #10
  call void @wtime_(double* nonnull %3) #10
  %94 = bitcast double* %3 to i64*
  %95 = load i64, i64* %94, align 8, !tbaa !8
  call void @llvm.lifetime.end.p0i8(i64 8, i8* nonnull %93) #10
  store i64 %95, i64* bitcast ([64 x double]* @start to i64*), align 16, !tbaa !8
  %.pre.i16.b = load i1, i1* @dims.2.0, align 8
  %96 = select i1 %.pre.i16.b, i64 512, i64 0
  %.pre4.i17.b = load i1, i1* @dims.2.1, align 8
  %97 = select i1 %.pre4.i17.b, i64 256, i64 0
  %.pre5.i18.b = load i1, i1* @dims.2.2, align 8
  %98 = select i1 %.pre5.i18.b, i64 256, i64 0
  br i1 %.pre.i16.b, label %.lr.ph6.i19, label %.loopexit3._crit_edge.i33

.lr.ph6.i19:                                      ; preds = %compute_indexmap.exit
  %.b177 = load i1, i1* @ystart.2, align 4
  %.b173 = load i1, i1* @xstart.2, align 4
  %99 = select i1 %.b173, i32 255, i32 254
  %100 = select i1 %.b177, i32 127, i32 126
  %or.cond153 = and i1 %.pre4.i17.b, %.pre5.i18.b
  br i1 %or.cond153, label %.lr.ph6.split.us.i22.us.preheader, label %.loopexit3._crit_edge.i33

.lr.ph6.split.us.i22.us.preheader:                ; preds = %.lr.ph6.i19
  %.b181 = load i1, i1* @zstart.2, align 4
  %101 = select i1 %.b181, i32 127, i32 126
  %broadcast.splatinsert221 = insertelement <4 x i32> undef, i32 %101, i32 0
  %102 = add <4 x i32> %broadcast.splatinsert221, <i32 1, i32 undef, i32 undef, i32 undef>
  %103 = shufflevector <4 x i32> %102, <4 x i32> undef, <4 x i32> zeroinitializer
  br label %.lr.ph.us.us.i27.us.us.preheader

.lr.ph.us.us.i27.us.us.preheader:                 ; preds = %.loopexit..loopexit3.loopexit_crit_edge.us.i24.loopexit.us, %.lr.ph6.split.us.i22.us.preheader
  %indvars.iv105.us.i20.us = phi i64 [ %indvars.iv.next11.us.i21.us, %.loopexit..loopexit3.loopexit_crit_edge.us.i24.loopexit.us ], [ 0, %.lr.ph6.split.us.i22.us.preheader ]
  %indvars.iv.next11.us.i21.us = add nuw nsw i64 %indvars.iv105.us.i20.us, 1
  %104 = trunc i64 %indvars.iv.next11.us.i21.us to i32
  %105 = add i32 %99, %104
  %106 = srem i32 %105, 512
  %107 = add nsw i32 %106, -256
  %108 = mul nsw i32 %107, %107
  br label %.lr.ph.us.us.i27.us.us

.lr.ph.us.us.i27.us.us:                           ; preds = %.lr.ph.us.us.i27.us.us.preheader, %..loopexit.loopexit_crit_edge.us.us.i29.us.loopexit.us
  %indvars.iv83.us.us.i25.us.us = phi i64 [ %indvars.iv.next9.us.us.i26.us.us, %..loopexit.loopexit_crit_edge.us.us.i29.us.loopexit.us ], [ 0, %.lr.ph.us.us.i27.us.us.preheader ]
  %indvars.iv.next9.us.us.i26.us.us = add nuw nsw i64 %indvars.iv83.us.us.i25.us.us, 1
  %109 = trunc i64 %indvars.iv.next9.us.us.i26.us.us to i32
  %110 = add i32 %100, %109
  %111 = srem i32 %110, 256
  %112 = add nsw i32 %111, -128
  %113 = mul nsw i32 %112, %112
  %114 = add nuw nsw i32 %113, %108
  %broadcast.splatinsert223.us = insertelement <4 x i32> undef, i32 %114, i32 0
  %broadcast.splat224.us = shufflevector <4 x i32> %broadcast.splatinsert223.us, <4 x i32> undef, <4 x i32> zeroinitializer
  br label %vector.body208.us

vector.body208.us:                                ; preds = %vector.body208.us, %.lr.ph.us.us.i27.us.us
  %index215.us = phi i64 [ 0, %.lr.ph.us.us.i27.us.us ], [ %index.next216.us, %vector.body208.us ]
  %vec.ind219.us = phi <4 x i64> [ <i64 0, i64 1, i64 2, i64 3>, %.lr.ph.us.us.i27.us.us ], [ %vec.ind.next220.us, %vector.body208.us ]
  %115 = or i64 %index215.us, 1
  %116 = or i64 %index215.us, 2
  %117 = or i64 %index215.us, 3
  %118 = trunc <4 x i64> %vec.ind219.us to <4 x i32>
  %119 = add <4 x i32> %103, %118
  %120 = srem <4 x i32> %119, <i32 256, i32 256, i32 256, i32 256>
  %121 = add nsw <4 x i32> %120, <i32 -128, i32 -128, i32 -128, i32 -128>
  %122 = mul nsw <4 x i32> %121, %121
  %123 = add nuw nsw <4 x i32> %122, %broadcast.splat224.us
  %124 = getelementptr inbounds [256 x [256 x [512 x i32]]], [256 x [256 x [512 x i32]]]* @main.indexmap, i64 0, i64 %index215.us, i64 %indvars.iv83.us.us.i25.us.us, i64 %indvars.iv105.us.i20.us
  %125 = getelementptr inbounds [256 x [256 x [512 x i32]]], [256 x [256 x [512 x i32]]]* @main.indexmap, i64 0, i64 %115, i64 %indvars.iv83.us.us.i25.us.us, i64 %indvars.iv105.us.i20.us
  %126 = getelementptr inbounds [256 x [256 x [512 x i32]]], [256 x [256 x [512 x i32]]]* @main.indexmap, i64 0, i64 %116, i64 %indvars.iv83.us.us.i25.us.us, i64 %indvars.iv105.us.i20.us
  %127 = getelementptr inbounds [256 x [256 x [512 x i32]]], [256 x [256 x [512 x i32]]]* @main.indexmap, i64 0, i64 %117, i64 %indvars.iv83.us.us.i25.us.us, i64 %indvars.iv105.us.i20.us
  %128 = extractelement <4 x i32> %123, i32 0
  store i32 %128, i32* %124, align 4, !tbaa !2
  %129 = extractelement <4 x i32> %123, i32 1
  store i32 %129, i32* %125, align 4, !tbaa !2
  %130 = extractelement <4 x i32> %123, i32 2
  store i32 %130, i32* %126, align 4, !tbaa !2
  %131 = extractelement <4 x i32> %123, i32 3
  store i32 %131, i32* %127, align 4, !tbaa !2
  %index.next216.us = add i64 %index215.us, 4
  %vec.ind.next220.us = add <4 x i64> %vec.ind219.us, <i64 4, i64 4, i64 4, i64 4>
  %132 = icmp eq i64 %index.next216.us, %98
  br i1 %132, label %..loopexit.loopexit_crit_edge.us.us.i29.us.loopexit.us, label %vector.body208.us, !llvm.loop !10

..loopexit.loopexit_crit_edge.us.us.i29.us.loopexit.us: ; preds = %vector.body208.us
  %exitcond20.i28.us.us = icmp eq i64 %indvars.iv.next9.us.us.i26.us.us, %97
  br i1 %exitcond20.i28.us.us, label %.loopexit..loopexit3.loopexit_crit_edge.us.i24.loopexit.us, label %.lr.ph.us.us.i27.us.us

.loopexit..loopexit3.loopexit_crit_edge.us.i24.loopexit.us: ; preds = %..loopexit.loopexit_crit_edge.us.us.i29.us.loopexit.us
  %exitcond21.i23.us = icmp eq i64 %indvars.iv.next11.us.i21.us, %96
  br i1 %exitcond21.i23.us, label %.loopexit3._crit_edge.i33, label %.lr.ph.us.us.i27.us.us.preheader

.loopexit3._crit_edge.i33:                        ; preds = %.loopexit..loopexit3.loopexit_crit_edge.us.i24.loopexit.us, %.lr.ph6.i19, %compute_indexmap.exit
  store <2 x double> <double 1.000000e+00, double 0x3FEFFFAD359AB364>, <2 x double>* bitcast ([1966081 x double]* @ex to <2 x double>*), align 16, !tbaa !8
  store <2 x double> <double 0x3FEFFF5A6C0B990F, double 0x3FEFFF07A352AED7>, <2 x double>* bitcast (double* getelementptr inbounds ([1966081 x double], [1966081 x double]* @ex, i64 0, i64 2) to <2 x double>*), align 16, !tbaa !8
  br label %._crit_edge.i38.._crit_edge.i38_crit_edge

._crit_edge.i38.._crit_edge.i38_crit_edge:        ; preds = %._crit_edge.i38.._crit_edge.i38_crit_edge.1, %.loopexit3._crit_edge.i33
  %.pre23.i37.pre = phi double [ 0x3FEFFFAD359AB364, %.loopexit3._crit_edge.i33 ], [ %.pre23.i37.pre.1.1, %._crit_edge.i38.._crit_edge.i38_crit_edge.1 ]
  %indvars.iv.next.i35204 = phi i64 [ 4, %.loopexit3._crit_edge.i33 ], [ %indvars.iv.next.i35.2.1, %._crit_edge.i38.._crit_edge.i38_crit_edge.1 ]
  %133 = phi double [ 0x3FEFFF07A352AED7, %.loopexit3._crit_edge.i33 ], [ %516, %._crit_edge.i38.._crit_edge.i38_crit_edge.1 ]
  %134 = fmul double %133, %.pre23.i37.pre
  %135 = getelementptr inbounds [1966081 x double], [1966081 x double]* @ex, i64 0, i64 %indvars.iv.next.i35204
  store double %134, double* %135, align 16, !tbaa !8
  %indvars.iv.next.i35 = or i64 %indvars.iv.next.i35204, 1
  %.pre23.i37.pre.1 = load double, double* getelementptr inbounds ([1966081 x double], [1966081 x double]* @ex, i64 0, i64 1), align 8, !tbaa !8
  %136 = fmul double %134, %.pre23.i37.pre.1
  %137 = getelementptr inbounds [1966081 x double], [1966081 x double]* @ex, i64 0, i64 %indvars.iv.next.i35
  store double %136, double* %137, align 8, !tbaa !8
  %indvars.iv.next.i35.1 = add nuw nsw i64 %indvars.iv.next.i35204, 2
  %138 = fmul double %.pre23.i37.pre.1, %136
  %139 = getelementptr inbounds [1966081 x double], [1966081 x double]* @ex, i64 0, i64 %indvars.iv.next.i35.1
  store double %138, double* %139, align 16, !tbaa !8
  %indvars.iv.next.i35.2 = add nuw nsw i64 %indvars.iv.next.i35204, 3
  %exitcond.i36.2 = icmp eq i64 %indvars.iv.next.i35.2, 1966081
  br i1 %exitcond.i36.2, label %compute_indexmap.exit39, label %._crit_edge.i38.._crit_edge.i38_crit_edge.1

compute_indexmap.exit39:                          ; preds = %._crit_edge.i38.._crit_edge.i38_crit_edge
  tail call fastcc void @compute_initial_conditions()
  %.b185 = load i1, i1* @dims.0.0, align 16
  %140 = select i1 %.b185, i32 512, i32 0
  tail call fastcc void @fft_init(i32 %140)
  tail call fastcc void @fft()
  %141 = bitcast [512 x [18 x %struct.dcomplex]]* %27 to i8*
  %142 = bitcast [512 x [18 x %struct.dcomplex]]* %28 to i8*
  %143 = bitcast [512 x [18 x %struct.dcomplex]]* %29 to i8*
  %144 = load i1, i1* @niter, align 4
  %.b200 = load i1, i1* @dims.2.1, align 8
  %145 = select i1 %.b200, i64 256, i64 0
  %146 = load i32, i32* @fftblock, align 4
  %.b198 = load i1, i1* @dims.2.0, align 8
  %147 = select i1 %.b198, i32 512, i32 0
  %148 = sub nsw i32 %147, %146
  %.b202 = load i1, i1* @dims.2.2, align 8
  %149 = sext i32 %146 to i64
  %150 = select i1 %.b202, i64 256, i64 0
  %151 = sext i32 %148 to i64
  %.b196 = load i1, i1* @dims.1.2, align 8
  %152 = select i1 %.b196, i64 256, i64 0
  %.b192 = load i1, i1* @dims.1.0, align 16
  %153 = select i1 %.b192, i32 512, i32 0
  %154 = sub nsw i32 %153, %146
  %.b194 = load i1, i1* @dims.1.1, align 16
  %155 = select i1 %.b194, i64 256, i64 0
  %156 = sext i32 %154 to i64
  %.b190 = load i1, i1* @dims.0.2, align 8
  %157 = select i1 %.b190, i32 256, i32 0
  %158 = zext i32 %157 to i64
  %.b188 = load i1, i1* @dims.0.1, align 16
  %159 = select i1 %.b188, i32 256, i32 0
  %160 = sub nsw i32 %159, %146
  %.b184 = load i1, i1* @dims.0.0, align 16
  %161 = select i1 %.b184, i32 512, i32 0
  %162 = zext i32 %161 to i64
  %163 = sext i32 %160 to i64
  %.b = load i1, i1* @xstart.0, align 4
  %164 = zext i1 %.b to i32
  %.b174 = load i1, i1* @xend.0, align 4
  %.b175 = load i1, i1* @ystart.0, align 4
  %165 = zext i1 %.b175 to i32
  %.b178 = load i1, i1* @yend.0, align 4
  %.b179 = load i1, i1* @zstart.0, align 4
  %166 = zext i1 %.b179 to i32
  %.b182 = load i1, i1* @zend.0, align 4
  %167 = select i1 %144, i64 21, i64 1
  br i1 %144, label %.lr.ph106, label %verify.exit, !noelle.parallelizer.looporder !11

.lr.ph106:                                        ; preds = %compute_indexmap.exit39
  %168 = bitcast [32 x i64]* %noelle.loop_environment.i to i8*
  %169 = getelementptr inbounds [32 x i64], [32 x i64]* %noelle.loop_environment.i, i64 0, i64 24
  %170 = bitcast i64* %169 to i32*
  %171 = getelementptr inbounds [32 x i64], [32 x i64]* %noelle.loop_environment.i, i64 0, i64 16
  %172 = getelementptr inbounds [32 x i64], [32 x i64]* %noelle.loop_environment.i, i64 0, i64 8
  %173 = getelementptr inbounds [32 x i64], [32 x i64]* %noelle.loop_environment.i, i64 0, i64 0
  %174 = icmp slt i32 %148, 0
  %175 = icmp sgt i32 %146, 0
  %176 = icmp slt i32 %154, 0
  %177 = icmp slt i32 %160, 0
  %178 = add nsw i64 %149, -1
  %brmerge.demorgan = and i1 %175, %.b202
  %xtraiter = and i64 %149, 1
  %179 = icmp eq i64 %178, 0
  %unroll_iter = sub nsw i64 %149, %xtraiter
  %lcmp.mod = icmp eq i64 %xtraiter, 0
  %xtraiter227 = and i64 %149, 3
  %180 = icmp ult i64 %178, 3
  %unroll_iter229 = sub nsw i64 %149, %xtraiter227
  %lcmp.mod228 = icmp eq i64 %xtraiter227, 0
  %brmerge162.demorgan = and i1 %175, %.b194
  %brmerge168.demorgan = and i1 %175, %.b184
  %181 = shl nuw nsw i64 %xtraiter227, 4
  %brmerge.demorgan53 = and i1 %.b174, %.b178
  br label %182

182:                                              ; preds = %checksum.exit._crit_edge, %.lr.ph106
  %183 = phi i32 [ %161, %.lr.ph106 ], [ %.pre151, %checksum.exit._crit_edge ]
  %184 = phi i32 [ %159, %.lr.ph106 ], [ %.pre150, %checksum.exit._crit_edge ]
  %185 = phi i32 [ %157, %.lr.ph106 ], [ %.pre, %checksum.exit._crit_edge ]
  %indvars.iv105 = phi i64 [ 1, %.lr.ph106 ], [ %indvars.iv.next, %checksum.exit._crit_edge ]
  %186 = trunc i64 %indvars.iv105 to i32
  call void @llvm.lifetime.start.p0i8(i64 256, i8* nonnull %168)
  %187 = zext i32 %185 to i64
  %188 = zext i32 %184 to i64
  %189 = zext i32 %183 to i64
  %190 = load i32, i32* getelementptr inbounds (%class.NoelleRuntime, %class.NoelleRuntime* @_ZL7runtime, i64 0, i32 6), align 8, !tbaa !12
  %191 = icmp sgt i32 %190, 1
  br i1 %191, label %223, label %.preheader2.i

.preheader2.i:                                    ; preds = %182
  %192 = icmp ne i32 %185, 0
  %193 = icmp ne i32 %184, 0
  %or.cond154 = and i1 %193, %192
  %194 = icmp ne i32 %183, 0
  %or.cond155 = and i1 %194, %or.cond154
  br i1 %or.cond155, label %.preheader1.preheader.us.i.us, label %evolve.exit, !noelle.parallelizer.looporder !21

.preheader1.preheader.us.i.us:                    ; preds = %.preheader2.i, %.preheader1._crit_edge.us.i.loopexit.us
  %indvars.iv56.us.i.us = phi i64 [ %indvars.iv.next6.us.i.us, %.preheader1._crit_edge.us.i.loopexit.us ], [ 0, %.preheader2.i ]
  br label %.preheader.preheader.us.us.i.us

.preheader.preheader.us.us.i.us:                  ; preds = %.preheader1.preheader.us.i.us, %.preheader._crit_edge.us.us.i.us
  %indvars.iv35.us.us.i.us = phi i64 [ %indvars.iv.next4.us.us.i.us, %.preheader._crit_edge.us.us.i.us ], [ 0, %.preheader1.preheader.us.i.us ]
  br label %.preheader.us.us.i.us

.preheader.us.us.i.us:                            ; preds = %.preheader.us.us.i.us, %.preheader.preheader.us.us.i.us
  %indvars.iv4.us.us.i.us = phi i64 [ 0, %.preheader.preheader.us.us.i.us ], [ %indvars.iv.next.us.us.i.us.1, %.preheader.us.us.i.us ]
  %195 = getelementptr inbounds [256 x [256 x [512 x %struct.dcomplex]]], [256 x [256 x [512 x %struct.dcomplex]]]* @main.u0, i64 0, i64 %indvars.iv56.us.i.us, i64 %indvars.iv35.us.us.i.us, i64 %indvars.iv4.us.us.i.us, i32 0
  %196 = getelementptr inbounds [256 x [256 x [512 x i32]]], [256 x [256 x [512 x i32]]]* @main.indexmap, i64 0, i64 %indvars.iv56.us.i.us, i64 %indvars.iv35.us.us.i.us, i64 %indvars.iv4.us.us.i.us
  %197 = load i32, i32* %196, align 8, !tbaa !2
  %198 = mul nsw i32 %197, %186
  %199 = sext i32 %198 to i64
  %200 = getelementptr inbounds [1966081 x double], [1966081 x double]* @ex, i64 0, i64 %199
  %201 = load double, double* %200, align 8, !tbaa !8
  %202 = getelementptr inbounds [256 x [256 x [512 x %struct.dcomplex]]], [256 x [256 x [512 x %struct.dcomplex]]]* @main.u1, i64 0, i64 %indvars.iv56.us.i.us, i64 %indvars.iv35.us.us.i.us, i64 %indvars.iv4.us.us.i.us, i32 0
  %203 = bitcast double* %195 to <2 x double>*
  %204 = load <2 x double>, <2 x double>* %203, align 16, !tbaa !8
  %205 = insertelement <2 x double> undef, double %201, i32 0
  %206 = shufflevector <2 x double> %205, <2 x double> undef, <2 x i32> zeroinitializer
  %207 = fmul <2 x double> %204, %206
  %208 = bitcast double* %202 to <2 x double>*
  store <2 x double> %207, <2 x double>* %208, align 16, !tbaa !8
  %indvars.iv.next.us.us.i.us = or i64 %indvars.iv4.us.us.i.us, 1
  %209 = getelementptr inbounds [256 x [256 x [512 x %struct.dcomplex]]], [256 x [256 x [512 x %struct.dcomplex]]]* @main.u0, i64 0, i64 %indvars.iv56.us.i.us, i64 %indvars.iv35.us.us.i.us, i64 %indvars.iv.next.us.us.i.us, i32 0
  %210 = getelementptr inbounds [256 x [256 x [512 x i32]]], [256 x [256 x [512 x i32]]]* @main.indexmap, i64 0, i64 %indvars.iv56.us.i.us, i64 %indvars.iv35.us.us.i.us, i64 %indvars.iv.next.us.us.i.us
  %211 = load i32, i32* %210, align 4, !tbaa !2
  %212 = mul nsw i32 %211, %186
  %213 = sext i32 %212 to i64
  %214 = getelementptr inbounds [1966081 x double], [1966081 x double]* @ex, i64 0, i64 %213
  %215 = load double, double* %214, align 8, !tbaa !8
  %216 = getelementptr inbounds [256 x [256 x [512 x %struct.dcomplex]]], [256 x [256 x [512 x %struct.dcomplex]]]* @main.u1, i64 0, i64 %indvars.iv56.us.i.us, i64 %indvars.iv35.us.us.i.us, i64 %indvars.iv.next.us.us.i.us, i32 0
  %217 = bitcast double* %209 to <2 x double>*
  %218 = load <2 x double>, <2 x double>* %217, align 16, !tbaa !8
  %219 = insertelement <2 x double> undef, double %215, i32 0
  %220 = shufflevector <2 x double> %219, <2 x double> undef, <2 x i32> zeroinitializer
  %221 = fmul <2 x double> %218, %220
  %222 = bitcast double* %216 to <2 x double>*
  store <2 x double> %221, <2 x double>* %222, align 16, !tbaa !8
  %indvars.iv.next.us.us.i.us.1 = add nuw nsw i64 %indvars.iv4.us.us.i.us, 2
  %exitcond.i14.us.1 = icmp eq i64 %indvars.iv.next.us.us.i.us.1, %189
  br i1 %exitcond.i14.us.1, label %.preheader._crit_edge.us.us.i.us, label %.preheader.us.us.i.us, !noelle.parallelizer.looporder !22

.preheader._crit_edge.us.us.i.us:                 ; preds = %.preheader.us.us.i.us
  %indvars.iv.next4.us.us.i.us = add nuw nsw i64 %indvars.iv35.us.us.i.us, 1
  %exitcond22.i.us = icmp eq i64 %indvars.iv.next4.us.us.i.us, %188
  br i1 %exitcond22.i.us, label %.preheader1._crit_edge.us.i.loopexit.us, label %.preheader.preheader.us.us.i.us, !noelle.parallelizer.looporder !23

.preheader1._crit_edge.us.i.loopexit.us:          ; preds = %.preheader._crit_edge.us.us.i.us
  %indvars.iv.next6.us.i.us = add nuw nsw i64 %indvars.iv56.us.i.us, 1
  %exitcond23.i.us = icmp eq i64 %indvars.iv.next6.us.i.us, %187
  br i1 %exitcond23.i.us, label %evolve.exit, label %.preheader1.preheader.us.i.us, !noelle.parallelizer.looporder !21

223:                                              ; preds = %182
  store i64 %187, i64* %173, align 8, !noelle.environment_variable.live_in.store_pointer !24
  store i64 %188, i64* %172, align 8, !noelle.environment_variable.live_in.store_pointer !25
  store i64 %189, i64* %171, align 8, !noelle.environment_variable.live_in.store_pointer !26
  store i32 %186, i32* %170, align 8, !noelle.environment_variable.live_in.store_pointer !27
  %224 = call { i32, i64 } @NOELLE_DOALLDispatcher(void (i8*, i64, i64, i64)* nonnull @noelle_task_7, i8* nonnull %168, i64 8, i64 8) #10
  br label %evolve.exit

evolve.exit:                                      ; preds = %.preheader1._crit_edge.us.i.loopexit.us, %.preheader2.i, %223
  call void @llvm.lifetime.end.p0i8(i64 256, i8* nonnull %168)
  %.b197 = load i1, i1* @dims.2.0, align 8
  %225 = select i1 %.b197, i32 512, i32 0
  br label %.preheader.i2.i9

.preheader.i2.i9:                                 ; preds = %evolve.exit, %.preheader.i2.i9
  %.01.i.i8 = phi i32 [ %227, %.preheader.i2.i9 ], [ 2, %evolve.exit ]
  %226 = icmp slt i32 %.01.i.i8, %225
  %227 = shl i32 %.01.i.i8, 1
  br i1 %226, label %.preheader.i2.i9, label %ilog2.exit.i13

ilog2.exit.i13:                                   ; preds = %.preheader.i2.i9
  %.b199 = load i1, i1* @dims.2.1, align 8
  %228 = select i1 %.b199, i32 256, i32 0
  br label %.preheader.i2.i9.1

.preheader21.preheader:                           ; preds = %ilog2.exit.i13.2, %.preheader21._crit_edge
  %indvars.iv13.i1466 = phi i64 [ %indvars.iv.next14.i62, %.preheader21._crit_edge ], [ 0, %ilog2.exit.i13.2 ]
  br i1 %174, label %.preheader21._crit_edge, label %.preheader18.preheader, !noelle.parallelizer.looporder !28

.preheader18.preheader:                           ; preds = %.preheader21.preheader, %.preheader21
  %indvar = phi i64 [ %indvar.next, %.preheader21 ], [ 0, %.preheader21.preheader ]
  %indvars.iv7262 = phi i64 [ %indvars.iv.next73, %.preheader21 ], [ 0, %.preheader21.preheader ]
  %229 = mul i64 %indvar, %149
  %230 = load i32, i32* getelementptr inbounds (%class.NoelleRuntime, %class.NoelleRuntime* @_ZL7runtime, i64 0, i32 6), align 8, !tbaa !12
  %231 = icmp sgt i32 %230, 1
  br i1 %231, label %477, label %.preheader18.preheader53

.preheader18.preheader53:                         ; preds = %.preheader18.preheader
  br i1 %brmerge.demorgan, label %.preheader1.i18.preheader.us.preheader, label %.preheader21, !noelle.parallelizer.looporder !29

.preheader1.i18.preheader.us.preheader:           ; preds = %.preheader18.preheader53
  br i1 %179, label %.preheader1.i18.preheader.us.us.preheader, label %.preheader1.i18.preheader.us

.preheader1.i18.preheader.us.us.preheader:        ; preds = %.preheader1.i18.preheader.us.preheader
  %sext79.us.epil.us = shl i64 %indvars.iv7262, 32
  %232 = ashr exact i64 %sext79.us.epil.us, 32
  br label %.preheader1.i18.preheader.us.us

.preheader1.i18.preheader.us.us:                  ; preds = %.preheader1.i18._crit_edge.us.us.1, %.preheader1.i18.preheader.us.us.preheader
  %indvars.iv7.i1758.us.us = phi i64 [ 0, %.preheader1.i18.preheader.us.us.preheader ], [ %indvars.iv.next8.i21.us.us.1, %.preheader1.i18._crit_edge.us.us.1 ]
  br i1 %lcmp.mod, label %.preheader1.i18._crit_edge.us.us, label %.preheader1.i18.us.epil.us

.preheader1.i18.us.epil.us:                       ; preds = %.preheader1.i18.preheader.us.us
  %233 = getelementptr inbounds [256 x [256 x [512 x %struct.dcomplex]]], [256 x [256 x [512 x %struct.dcomplex]]]* @main.u1, i64 0, i64 %indvars.iv7.i1758.us.us, i64 %indvars.iv13.i1466, i64 %232
  %234 = getelementptr inbounds [512 x [18 x %struct.dcomplex]], [512 x [18 x %struct.dcomplex]]* %27, i64 0, i64 %indvars.iv7.i1758.us.us, i64 0
  %235 = bitcast %struct.dcomplex* %233 to <2 x i64>*
  %236 = load <2 x i64>, <2 x i64>* %235, align 16, !tbaa !8
  %237 = bitcast %struct.dcomplex* %234 to <2 x i64>*
  store <2 x i64> %236, <2 x i64>* %237, align 16, !tbaa !8
  br label %.preheader1.i18._crit_edge.us.us

.preheader1.i18._crit_edge.us.us:                 ; preds = %.preheader1.i18.us.epil.us, %.preheader1.i18.preheader.us.us
  %indvars.iv.next8.i21.us.us = or i64 %indvars.iv7.i1758.us.us, 1
  br i1 %lcmp.mod, label %.preheader1.i18._crit_edge.us.us.1, label %.preheader1.i18.us.epil.us.1

.preheader1.i18.preheader.us:                     ; preds = %.preheader1.i18.preheader.us.preheader, %.preheader1.i18._crit_edge.us
  %indvars.iv7.i1758.us = phi i64 [ %indvars.iv.next8.i21.us, %.preheader1.i18._crit_edge.us ], [ 0, %.preheader1.i18.preheader.us.preheader ]
  br label %.preheader1.i18.us

.preheader1.i18.us:                               ; preds = %.preheader1.i18.preheader.us, %.preheader1.i18.us
  %indvars.iv.i1957.us = phi i64 [ %indvars.iv.next.i20.us.1, %.preheader1.i18.us ], [ 0, %.preheader1.i18.preheader.us ]
  %niter = phi i64 [ %niter.nsub.1, %.preheader1.i18.us ], [ %unroll_iter, %.preheader1.i18.preheader.us ]
  %238 = add i64 %indvars.iv.i1957.us, %indvars.iv7262
  %sext79.us = shl i64 %238, 32
  %239 = ashr exact i64 %sext79.us, 32
  %240 = getelementptr inbounds [256 x [256 x [512 x %struct.dcomplex]]], [256 x [256 x [512 x %struct.dcomplex]]]* @main.u1, i64 0, i64 %indvars.iv7.i1758.us, i64 %indvars.iv13.i1466, i64 %239
  %241 = getelementptr inbounds [512 x [18 x %struct.dcomplex]], [512 x [18 x %struct.dcomplex]]* %27, i64 0, i64 %indvars.iv7.i1758.us, i64 %indvars.iv.i1957.us
  %242 = bitcast %struct.dcomplex* %240 to <2 x i64>*
  %243 = load <2 x i64>, <2 x i64>* %242, align 16, !tbaa !8
  %244 = bitcast %struct.dcomplex* %241 to <2 x i64>*
  store <2 x i64> %243, <2 x i64>* %244, align 16, !tbaa !8
  %indvars.iv.next.i20.us = or i64 %indvars.iv.i1957.us, 1
  %245 = add i64 %indvars.iv.next.i20.us, %indvars.iv7262
  %sext79.us.1 = shl i64 %245, 32
  %246 = ashr exact i64 %sext79.us.1, 32
  %247 = getelementptr inbounds [256 x [256 x [512 x %struct.dcomplex]]], [256 x [256 x [512 x %struct.dcomplex]]]* @main.u1, i64 0, i64 %indvars.iv7.i1758.us, i64 %indvars.iv13.i1466, i64 %246
  %248 = getelementptr inbounds [512 x [18 x %struct.dcomplex]], [512 x [18 x %struct.dcomplex]]* %27, i64 0, i64 %indvars.iv7.i1758.us, i64 %indvars.iv.next.i20.us
  %249 = bitcast %struct.dcomplex* %247 to <2 x i64>*
  %250 = load <2 x i64>, <2 x i64>* %249, align 16, !tbaa !8
  %251 = bitcast %struct.dcomplex* %248 to <2 x i64>*
  store <2 x i64> %250, <2 x i64>* %251, align 16, !tbaa !8
  %indvars.iv.next.i20.us.1 = add nuw nsw i64 %indvars.iv.i1957.us, 2
  %niter.nsub.1 = add i64 %niter, -2
  %niter.ncmp.1 = icmp eq i64 %niter.nsub.1, 0
  br i1 %niter.ncmp.1, label %.preheader1.i18._crit_edge.us.unr-lcssa, label %.preheader1.i18.us

.preheader1.i18._crit_edge.us.unr-lcssa:          ; preds = %.preheader1.i18.us
  br i1 %lcmp.mod, label %.preheader1.i18._crit_edge.us, label %.preheader1.i18.us.epil

.preheader1.i18.us.epil:                          ; preds = %.preheader1.i18._crit_edge.us.unr-lcssa
  %252 = add i64 %indvars.iv.next.i20.us.1, %indvars.iv7262
  %sext79.us.epil = shl i64 %252, 32
  %253 = ashr exact i64 %sext79.us.epil, 32
  %254 = getelementptr inbounds [256 x [256 x [512 x %struct.dcomplex]]], [256 x [256 x [512 x %struct.dcomplex]]]* @main.u1, i64 0, i64 %indvars.iv7.i1758.us, i64 %indvars.iv13.i1466, i64 %253
  %255 = getelementptr inbounds [512 x [18 x %struct.dcomplex]], [512 x [18 x %struct.dcomplex]]* %27, i64 0, i64 %indvars.iv7.i1758.us, i64 %indvars.iv.next.i20.us.1
  %256 = bitcast %struct.dcomplex* %254 to <2 x i64>*
  %257 = load <2 x i64>, <2 x i64>* %256, align 16, !tbaa !8
  %258 = bitcast %struct.dcomplex* %255 to <2 x i64>*
  store <2 x i64> %257, <2 x i64>* %258, align 16, !tbaa !8
  br label %.preheader1.i18._crit_edge.us

.preheader1.i18._crit_edge.us:                    ; preds = %.preheader1.i18._crit_edge.us.unr-lcssa, %.preheader1.i18.us.epil
  %indvars.iv.next8.i21.us = add nuw nsw i64 %indvars.iv7.i1758.us, 1
  %exitcond127 = icmp eq i64 %indvars.iv.next8.i21.us, %150
  br i1 %exitcond127, label %cfftz.exit.i56, label %.preheader1.i18.preheader.us, !noelle.parallelizer.looporder !29

cfftz.exit.i56:                                   ; preds = %.preheader1.i18._crit_edge.us, %.preheader1.i18._crit_edge.us.us.1, %477
  %259 = phi i32 [ %.pre43, %477 ], [ %230, %.preheader1.i18._crit_edge.us.us.1 ], [ %230, %.preheader1.i18._crit_edge.us ]
  %260 = icmp sgt i32 %259, 1
  br i1 %260, label %481, label %.preheader51

.preheader51:                                     ; preds = %cfftz.exit.i56
  br i1 %brmerge.demorgan, label %.preheader.i58.preheader.us.preheader, label %.preheader21, !noelle.parallelizer.looporder !30

.preheader.i58.preheader.us.preheader:            ; preds = %.preheader51
  br i1 %180, label %.preheader.i58.preheader.us.us, label %.preheader.i58.preheader.us

.preheader.i58.preheader.us.us:                   ; preds = %.preheader.i58.preheader.us.preheader, %.preheader.i58._crit_edge.us.us.1
  %indvars.iv11.i5761.us.us = phi i64 [ %indvars.iv.next12.i61.us.us.1, %.preheader.i58._crit_edge.us.us.1 ], [ 0, %.preheader.i58.preheader.us.preheader ]
  br i1 %lcmp.mod228, label %.preheader.i58._crit_edge.us.us, label %.preheader.i58.us.epil.us.preheader

.preheader.i58.us.epil.us.preheader:              ; preds = %.preheader.i58.preheader.us.us
  %scevgep27 = getelementptr [512 x [18 x %struct.dcomplex]], [512 x [18 x %struct.dcomplex]]* %27, i64 0, i64 %indvars.iv11.i5761.us.us, i64 0
  %scevgep2728 = bitcast %struct.dcomplex* %scevgep27 to i8*
  %scevgep25 = getelementptr [256 x [256 x [512 x %struct.dcomplex]]], [256 x [256 x [512 x %struct.dcomplex]]]* @main.u1, i64 0, i64 %indvars.iv11.i5761.us.us, i64 %indvars.iv13.i1466, i64 %229
  %scevgep2526 = bitcast %struct.dcomplex* %scevgep25 to i8*
  call void @llvm.memcpy.p0i8.p0i8.i64(i8* align 16 %scevgep2526, i8* align 16 %scevgep2728, i64 %181, i1 false)
  br label %.preheader.i58._crit_edge.us.us

.preheader.i58._crit_edge.us.us:                  ; preds = %.preheader.i58.us.epil.us.preheader, %.preheader.i58.preheader.us.us
  %indvars.iv.next12.i61.us.us = or i64 %indvars.iv11.i5761.us.us, 1
  br i1 %lcmp.mod228, label %.preheader.i58._crit_edge.us.us.1, label %.preheader.i58.us.epil.us.preheader.1

.preheader.i58.preheader.us:                      ; preds = %.preheader.i58.preheader.us.preheader, %.preheader.i58._crit_edge.us
  %indvars.iv11.i5761.us = phi i64 [ %indvars.iv.next12.i61.us, %.preheader.i58._crit_edge.us ], [ 0, %.preheader.i58.preheader.us.preheader ]
  br label %.preheader.i58.us

.preheader.i58.us:                                ; preds = %.preheader.i58.preheader.us, %.preheader.i58.us
  %indvars.iv9.i5959.us = phi i64 [ %indvars.iv.next10.i60.us.3, %.preheader.i58.us ], [ 0, %.preheader.i58.preheader.us ]
  %niter230 = phi i64 [ %niter230.nsub.3, %.preheader.i58.us ], [ %unroll_iter229, %.preheader.i58.preheader.us ]
  %261 = getelementptr inbounds [512 x [18 x %struct.dcomplex]], [512 x [18 x %struct.dcomplex]]* %27, i64 0, i64 %indvars.iv11.i5761.us, i64 %indvars.iv9.i5959.us
  %262 = add nsw i64 %indvars.iv9.i5959.us, %indvars.iv7262
  %263 = getelementptr inbounds [256 x [256 x [512 x %struct.dcomplex]]], [256 x [256 x [512 x %struct.dcomplex]]]* @main.u1, i64 0, i64 %indvars.iv11.i5761.us, i64 %indvars.iv13.i1466, i64 %262
  %264 = bitcast %struct.dcomplex* %261 to <2 x i64>*
  %265 = load <2 x i64>, <2 x i64>* %264, align 16, !tbaa !8
  %266 = bitcast %struct.dcomplex* %263 to <2 x i64>*
  store <2 x i64> %265, <2 x i64>* %266, align 16, !tbaa !8
  %indvars.iv.next10.i60.us = or i64 %indvars.iv9.i5959.us, 1
  %267 = getelementptr inbounds [512 x [18 x %struct.dcomplex]], [512 x [18 x %struct.dcomplex]]* %27, i64 0, i64 %indvars.iv11.i5761.us, i64 %indvars.iv.next10.i60.us
  %268 = add nsw i64 %indvars.iv.next10.i60.us, %indvars.iv7262
  %269 = getelementptr inbounds [256 x [256 x [512 x %struct.dcomplex]]], [256 x [256 x [512 x %struct.dcomplex]]]* @main.u1, i64 0, i64 %indvars.iv11.i5761.us, i64 %indvars.iv13.i1466, i64 %268
  %270 = bitcast %struct.dcomplex* %267 to <2 x i64>*
  %271 = load <2 x i64>, <2 x i64>* %270, align 16, !tbaa !8
  %272 = bitcast %struct.dcomplex* %269 to <2 x i64>*
  store <2 x i64> %271, <2 x i64>* %272, align 16, !tbaa !8
  %indvars.iv.next10.i60.us.1 = or i64 %indvars.iv9.i5959.us, 2
  %273 = getelementptr inbounds [512 x [18 x %struct.dcomplex]], [512 x [18 x %struct.dcomplex]]* %27, i64 0, i64 %indvars.iv11.i5761.us, i64 %indvars.iv.next10.i60.us.1
  %274 = add nsw i64 %indvars.iv.next10.i60.us.1, %indvars.iv7262
  %275 = getelementptr inbounds [256 x [256 x [512 x %struct.dcomplex]]], [256 x [256 x [512 x %struct.dcomplex]]]* @main.u1, i64 0, i64 %indvars.iv11.i5761.us, i64 %indvars.iv13.i1466, i64 %274
  %276 = bitcast %struct.dcomplex* %273 to <2 x i64>*
  %277 = load <2 x i64>, <2 x i64>* %276, align 16, !tbaa !8
  %278 = bitcast %struct.dcomplex* %275 to <2 x i64>*
  store <2 x i64> %277, <2 x i64>* %278, align 16, !tbaa !8
  %indvars.iv.next10.i60.us.2 = or i64 %indvars.iv9.i5959.us, 3
  %279 = getelementptr inbounds [512 x [18 x %struct.dcomplex]], [512 x [18 x %struct.dcomplex]]* %27, i64 0, i64 %indvars.iv11.i5761.us, i64 %indvars.iv.next10.i60.us.2
  %280 = add nsw i64 %indvars.iv.next10.i60.us.2, %indvars.iv7262
  %281 = getelementptr inbounds [256 x [256 x [512 x %struct.dcomplex]]], [256 x [256 x [512 x %struct.dcomplex]]]* @main.u1, i64 0, i64 %indvars.iv11.i5761.us, i64 %indvars.iv13.i1466, i64 %280
  %282 = bitcast %struct.dcomplex* %279 to <2 x i64>*
  %283 = load <2 x i64>, <2 x i64>* %282, align 16, !tbaa !8
  %284 = bitcast %struct.dcomplex* %281 to <2 x i64>*
  store <2 x i64> %283, <2 x i64>* %284, align 16, !tbaa !8
  %indvars.iv.next10.i60.us.3 = add nuw nsw i64 %indvars.iv9.i5959.us, 4
  %niter230.nsub.3 = add i64 %niter230, -4
  %niter230.ncmp.3 = icmp eq i64 %niter230.nsub.3, 0
  br i1 %niter230.ncmp.3, label %.preheader.i58._crit_edge.us.unr-lcssa, label %.preheader.i58.us

.preheader.i58._crit_edge.us.unr-lcssa:           ; preds = %.preheader.i58.us
  br i1 %lcmp.mod228, label %.preheader.i58._crit_edge.us, label %.preheader.i58.us.epil.preheader

.preheader.i58.us.epil.preheader:                 ; preds = %.preheader.i58._crit_edge.us.unr-lcssa
  %285 = add nsw i64 %229, %indvars.iv.next10.i60.us.3
  %scevgep20 = getelementptr [256 x [256 x [512 x %struct.dcomplex]]], [256 x [256 x [512 x %struct.dcomplex]]]* @main.u1, i64 0, i64 %indvars.iv11.i5761.us, i64 %indvars.iv13.i1466, i64 %285
  %scevgep2021 = bitcast %struct.dcomplex* %scevgep20 to i8*
  %scevgep23 = getelementptr [512 x [18 x %struct.dcomplex]], [512 x [18 x %struct.dcomplex]]* %27, i64 0, i64 %indvars.iv11.i5761.us, i64 %indvars.iv.next10.i60.us.3
  %scevgep2324 = bitcast %struct.dcomplex* %scevgep23 to i8*
  call void @llvm.memcpy.p0i8.p0i8.i64(i8* align 16 %scevgep2021, i8* align 16 %scevgep2324, i64 %181, i1 false)
  br label %.preheader.i58._crit_edge.us

.preheader.i58._crit_edge.us:                     ; preds = %.preheader.i58.us.epil.preheader, %.preheader.i58._crit_edge.us.unr-lcssa
  %indvars.iv.next12.i61.us = add nuw nsw i64 %indvars.iv11.i5761.us, 1
  %exitcond130 = icmp eq i64 %indvars.iv.next12.i61.us, %150
  br i1 %exitcond130, label %.preheader21, label %.preheader.i58.preheader.us, !noelle.parallelizer.looporder !30

.preheader21:                                     ; preds = %.preheader.i58._crit_edge.us, %.preheader.i58._crit_edge.us.us.1, %.preheader18.preheader53, %.preheader51, %481
  %indvars.iv.next73 = add i64 %indvars.iv7262, %149
  %286 = icmp sgt i64 %indvars.iv.next73, %151
  %indvar.next = add i64 %indvar, 1
  br i1 %286, label %.preheader21._crit_edge, label %.preheader18.preheader, !noelle.parallelizer.looporder !28

.preheader21._crit_edge:                          ; preds = %.preheader21, %.preheader21.preheader
  %indvars.iv.next14.i62 = add nuw nsw i64 %indvars.iv13.i1466, 1
  %exitcond131 = icmp eq i64 %indvars.iv.next14.i62, %145
  br i1 %exitcond131, label %cffts3.exit, label %.preheader21.preheader, !noelle.parallelizer.looporder !31

cffts3.exit:                                      ; preds = %.preheader21._crit_edge, %ilog2.exit.i13.2
  call void @llvm.lifetime.end.p0i8(i64 147456, i8* nonnull %141) #10
  %.b191 = load i1, i1* @dims.1.0, align 16
  %287 = select i1 %.b191, i32 512, i32 0
  br label %.preheader.i2.i

.preheader.i2.i:                                  ; preds = %cffts3.exit, %.preheader.i2.i
  %.01.i.i = phi i32 [ %289, %.preheader.i2.i ], [ 2, %cffts3.exit ]
  %288 = icmp slt i32 %.01.i.i, %287
  %289 = shl i32 %.01.i.i, 1
  br i1 %288, label %.preheader.i2.i, label %ilog2.exit.i

ilog2.exit.i:                                     ; preds = %.preheader.i2.i
  %.b193 = load i1, i1* @dims.1.1, align 16
  %290 = select i1 %.b193, i32 256, i32 0
  br label %.preheader.i2.i.1

.preheader20.preheader:                           ; preds = %ilog2.exit.i.2, %.preheader20._crit_edge
  %indvars.iv13.i79 = phi i64 [ %indvars.iv.next14.i, %.preheader20._crit_edge ], [ 0, %ilog2.exit.i.2 ]
  br i1 %176, label %.preheader20._crit_edge, label %.preheader16.preheader, !noelle.parallelizer.looporder !32

.preheader16.preheader:                           ; preds = %.preheader20.preheader, %.preheader20
  %indvar30 = phi i64 [ %indvar.next31, %.preheader20 ], [ 0, %.preheader20.preheader ]
  %indvars.iv7475 = phi i64 [ %indvars.iv.next75, %.preheader20 ], [ 0, %.preheader20.preheader ]
  %291 = mul i64 %indvar30, %149
  %292 = load i32, i32* getelementptr inbounds (%class.NoelleRuntime, %class.NoelleRuntime* @_ZL7runtime, i64 0, i32 6), align 8, !tbaa !12
  %293 = icmp sgt i32 %292, 1
  br i1 %293, label %479, label %.preheader16.preheader50

.preheader16.preheader50:                         ; preds = %.preheader16.preheader
  br i1 %brmerge162.demorgan, label %.preheader1.i.preheader.us.preheader, label %.preheader20, !noelle.parallelizer.looporder !33

.preheader1.i.preheader.us.preheader:             ; preds = %.preheader16.preheader50
  br i1 %179, label %.preheader1.i.preheader.us.us.preheader, label %.preheader1.i.preheader.us

.preheader1.i.preheader.us.us.preheader:          ; preds = %.preheader1.i.preheader.us.preheader
  %sext78.us.epil.us = shl i64 %indvars.iv7475, 32
  %294 = ashr exact i64 %sext78.us.epil.us, 32
  br label %.preheader1.i.preheader.us.us

.preheader1.i.preheader.us.us:                    ; preds = %.preheader1.i._crit_edge.us.us.1, %.preheader1.i.preheader.us.us.preheader
  %indvars.iv7.i71.us.us = phi i64 [ 0, %.preheader1.i.preheader.us.us.preheader ], [ %indvars.iv.next8.i.us.us.1, %.preheader1.i._crit_edge.us.us.1 ]
  br i1 %lcmp.mod, label %.preheader1.i._crit_edge.us.us, label %.preheader1.i.us.epil.us

.preheader1.i.us.epil.us:                         ; preds = %.preheader1.i.preheader.us.us
  %295 = getelementptr inbounds [256 x [256 x [512 x %struct.dcomplex]]], [256 x [256 x [512 x %struct.dcomplex]]]* @main.u1, i64 0, i64 %indvars.iv13.i79, i64 %indvars.iv7.i71.us.us, i64 %294
  %296 = getelementptr inbounds [512 x [18 x %struct.dcomplex]], [512 x [18 x %struct.dcomplex]]* %28, i64 0, i64 %indvars.iv7.i71.us.us, i64 0
  %297 = bitcast %struct.dcomplex* %295 to <2 x i64>*
  %298 = load <2 x i64>, <2 x i64>* %297, align 16, !tbaa !8
  %299 = bitcast %struct.dcomplex* %296 to <2 x i64>*
  store <2 x i64> %298, <2 x i64>* %299, align 16, !tbaa !8
  br label %.preheader1.i._crit_edge.us.us

.preheader1.i._crit_edge.us.us:                   ; preds = %.preheader1.i.us.epil.us, %.preheader1.i.preheader.us.us
  %indvars.iv.next8.i.us.us = or i64 %indvars.iv7.i71.us.us, 1
  br i1 %lcmp.mod, label %.preheader1.i._crit_edge.us.us.1, label %.preheader1.i.us.epil.us.1

.preheader1.i.preheader.us:                       ; preds = %.preheader1.i.preheader.us.preheader, %.preheader1.i._crit_edge.us
  %indvars.iv7.i71.us = phi i64 [ %indvars.iv.next8.i.us, %.preheader1.i._crit_edge.us ], [ 0, %.preheader1.i.preheader.us.preheader ]
  br label %.preheader1.i.us

.preheader1.i.us:                                 ; preds = %.preheader1.i.preheader.us, %.preheader1.i.us
  %indvars.iv.i669.us = phi i64 [ %indvars.iv.next.i7.us.1, %.preheader1.i.us ], [ 0, %.preheader1.i.preheader.us ]
  %niter234 = phi i64 [ %niter234.nsub.1, %.preheader1.i.us ], [ %unroll_iter, %.preheader1.i.preheader.us ]
  %300 = add i64 %indvars.iv.i669.us, %indvars.iv7475
  %sext78.us = shl i64 %300, 32
  %301 = ashr exact i64 %sext78.us, 32
  %302 = getelementptr inbounds [256 x [256 x [512 x %struct.dcomplex]]], [256 x [256 x [512 x %struct.dcomplex]]]* @main.u1, i64 0, i64 %indvars.iv13.i79, i64 %indvars.iv7.i71.us, i64 %301
  %303 = getelementptr inbounds [512 x [18 x %struct.dcomplex]], [512 x [18 x %struct.dcomplex]]* %28, i64 0, i64 %indvars.iv7.i71.us, i64 %indvars.iv.i669.us
  %304 = bitcast %struct.dcomplex* %302 to <2 x i64>*
  %305 = load <2 x i64>, <2 x i64>* %304, align 16, !tbaa !8
  %306 = bitcast %struct.dcomplex* %303 to <2 x i64>*
  store <2 x i64> %305, <2 x i64>* %306, align 16, !tbaa !8
  %indvars.iv.next.i7.us = or i64 %indvars.iv.i669.us, 1
  %307 = add i64 %indvars.iv.next.i7.us, %indvars.iv7475
  %sext78.us.1 = shl i64 %307, 32
  %308 = ashr exact i64 %sext78.us.1, 32
  %309 = getelementptr inbounds [256 x [256 x [512 x %struct.dcomplex]]], [256 x [256 x [512 x %struct.dcomplex]]]* @main.u1, i64 0, i64 %indvars.iv13.i79, i64 %indvars.iv7.i71.us, i64 %308
  %310 = getelementptr inbounds [512 x [18 x %struct.dcomplex]], [512 x [18 x %struct.dcomplex]]* %28, i64 0, i64 %indvars.iv7.i71.us, i64 %indvars.iv.next.i7.us
  %311 = bitcast %struct.dcomplex* %309 to <2 x i64>*
  %312 = load <2 x i64>, <2 x i64>* %311, align 16, !tbaa !8
  %313 = bitcast %struct.dcomplex* %310 to <2 x i64>*
  store <2 x i64> %312, <2 x i64>* %313, align 16, !tbaa !8
  %indvars.iv.next.i7.us.1 = add nuw nsw i64 %indvars.iv.i669.us, 2
  %niter234.nsub.1 = add i64 %niter234, -2
  %niter234.ncmp.1 = icmp eq i64 %niter234.nsub.1, 0
  br i1 %niter234.ncmp.1, label %.preheader1.i._crit_edge.us.unr-lcssa, label %.preheader1.i.us

.preheader1.i._crit_edge.us.unr-lcssa:            ; preds = %.preheader1.i.us
  br i1 %lcmp.mod, label %.preheader1.i._crit_edge.us, label %.preheader1.i.us.epil

.preheader1.i.us.epil:                            ; preds = %.preheader1.i._crit_edge.us.unr-lcssa
  %314 = add i64 %indvars.iv.next.i7.us.1, %indvars.iv7475
  %sext78.us.epil = shl i64 %314, 32
  %315 = ashr exact i64 %sext78.us.epil, 32
  %316 = getelementptr inbounds [256 x [256 x [512 x %struct.dcomplex]]], [256 x [256 x [512 x %struct.dcomplex]]]* @main.u1, i64 0, i64 %indvars.iv13.i79, i64 %indvars.iv7.i71.us, i64 %315
  %317 = getelementptr inbounds [512 x [18 x %struct.dcomplex]], [512 x [18 x %struct.dcomplex]]* %28, i64 0, i64 %indvars.iv7.i71.us, i64 %indvars.iv.next.i7.us.1
  %318 = bitcast %struct.dcomplex* %316 to <2 x i64>*
  %319 = load <2 x i64>, <2 x i64>* %318, align 16, !tbaa !8
  %320 = bitcast %struct.dcomplex* %317 to <2 x i64>*
  store <2 x i64> %319, <2 x i64>* %320, align 16, !tbaa !8
  br label %.preheader1.i._crit_edge.us

.preheader1.i._crit_edge.us:                      ; preds = %.preheader1.i._crit_edge.us.unr-lcssa, %.preheader1.i.us.epil
  %indvars.iv.next8.i.us = add nuw nsw i64 %indvars.iv7.i71.us, 1
  %exitcond134 = icmp eq i64 %indvars.iv.next8.i.us, %155
  br i1 %exitcond134, label %cfftz.exit.i42, label %.preheader1.i.preheader.us, !noelle.parallelizer.looporder !33

cfftz.exit.i42:                                   ; preds = %.preheader1.i._crit_edge.us, %.preheader1.i._crit_edge.us.us.1, %479
  %321 = phi i32 [ %.pre44, %479 ], [ %292, %.preheader1.i._crit_edge.us.us.1 ], [ %292, %.preheader1.i._crit_edge.us ]
  %322 = icmp sgt i32 %321, 1
  br i1 %322, label %483, label %.preheader48

.preheader48:                                     ; preds = %cfftz.exit.i42
  br i1 %brmerge162.demorgan, label %.preheader.i43.preheader.us.preheader, label %.preheader20, !noelle.parallelizer.looporder !34

.preheader.i43.preheader.us.preheader:            ; preds = %.preheader48
  br i1 %180, label %.preheader.i43.preheader.us.us, label %.preheader.i43.preheader.us

.preheader.i43.preheader.us.us:                   ; preds = %.preheader.i43.preheader.us.preheader, %.preheader.i43._crit_edge.us.us.1
  %indvars.iv11.i74.us.us = phi i64 [ %indvars.iv.next12.i.us.us.1, %.preheader.i43._crit_edge.us.us.1 ], [ 0, %.preheader.i43.preheader.us.preheader ]
  br i1 %lcmp.mod228, label %.preheader.i43._crit_edge.us.us, label %.preheader.i43.us.epil.us.preheader

.preheader.i43.us.epil.us.preheader:              ; preds = %.preheader.i43.preheader.us.us
  %scevgep39 = getelementptr [512 x [18 x %struct.dcomplex]], [512 x [18 x %struct.dcomplex]]* %28, i64 0, i64 %indvars.iv11.i74.us.us, i64 0
  %scevgep3940 = bitcast %struct.dcomplex* %scevgep39 to i8*
  %scevgep37 = getelementptr [256 x [256 x [512 x %struct.dcomplex]]], [256 x [256 x [512 x %struct.dcomplex]]]* @main.u1, i64 0, i64 %indvars.iv13.i79, i64 %indvars.iv11.i74.us.us, i64 %291
  %scevgep3738 = bitcast %struct.dcomplex* %scevgep37 to i8*
  call void @llvm.memcpy.p0i8.p0i8.i64(i8* align 16 %scevgep3738, i8* align 16 %scevgep3940, i64 %181, i1 false)
  br label %.preheader.i43._crit_edge.us.us

.preheader.i43._crit_edge.us.us:                  ; preds = %.preheader.i43.us.epil.us.preheader, %.preheader.i43.preheader.us.us
  %indvars.iv.next12.i.us.us = or i64 %indvars.iv11.i74.us.us, 1
  br i1 %lcmp.mod228, label %.preheader.i43._crit_edge.us.us.1, label %.preheader.i43.us.epil.us.preheader.1

.preheader.i43.preheader.us:                      ; preds = %.preheader.i43.preheader.us.preheader, %.preheader.i43._crit_edge.us
  %indvars.iv11.i74.us = phi i64 [ %indvars.iv.next12.i.us, %.preheader.i43._crit_edge.us ], [ 0, %.preheader.i43.preheader.us.preheader ]
  br label %.preheader.i43.us

.preheader.i43.us:                                ; preds = %.preheader.i43.preheader.us, %.preheader.i43.us
  %indvars.iv9.i72.us = phi i64 [ %indvars.iv.next10.i.us.3, %.preheader.i43.us ], [ 0, %.preheader.i43.preheader.us ]
  %niter239 = phi i64 [ %niter239.nsub.3, %.preheader.i43.us ], [ %unroll_iter229, %.preheader.i43.preheader.us ]
  %323 = getelementptr inbounds [512 x [18 x %struct.dcomplex]], [512 x [18 x %struct.dcomplex]]* %28, i64 0, i64 %indvars.iv11.i74.us, i64 %indvars.iv9.i72.us
  %324 = add nsw i64 %indvars.iv9.i72.us, %indvars.iv7475
  %325 = getelementptr inbounds [256 x [256 x [512 x %struct.dcomplex]]], [256 x [256 x [512 x %struct.dcomplex]]]* @main.u1, i64 0, i64 %indvars.iv13.i79, i64 %indvars.iv11.i74.us, i64 %324
  %326 = bitcast %struct.dcomplex* %323 to <2 x i64>*
  %327 = load <2 x i64>, <2 x i64>* %326, align 16, !tbaa !8
  %328 = bitcast %struct.dcomplex* %325 to <2 x i64>*
  store <2 x i64> %327, <2 x i64>* %328, align 16, !tbaa !8
  %indvars.iv.next10.i.us = or i64 %indvars.iv9.i72.us, 1
  %329 = getelementptr inbounds [512 x [18 x %struct.dcomplex]], [512 x [18 x %struct.dcomplex]]* %28, i64 0, i64 %indvars.iv11.i74.us, i64 %indvars.iv.next10.i.us
  %330 = add nsw i64 %indvars.iv.next10.i.us, %indvars.iv7475
  %331 = getelementptr inbounds [256 x [256 x [512 x %struct.dcomplex]]], [256 x [256 x [512 x %struct.dcomplex]]]* @main.u1, i64 0, i64 %indvars.iv13.i79, i64 %indvars.iv11.i74.us, i64 %330
  %332 = bitcast %struct.dcomplex* %329 to <2 x i64>*
  %333 = load <2 x i64>, <2 x i64>* %332, align 16, !tbaa !8
  %334 = bitcast %struct.dcomplex* %331 to <2 x i64>*
  store <2 x i64> %333, <2 x i64>* %334, align 16, !tbaa !8
  %indvars.iv.next10.i.us.1 = or i64 %indvars.iv9.i72.us, 2
  %335 = getelementptr inbounds [512 x [18 x %struct.dcomplex]], [512 x [18 x %struct.dcomplex]]* %28, i64 0, i64 %indvars.iv11.i74.us, i64 %indvars.iv.next10.i.us.1
  %336 = add nsw i64 %indvars.iv.next10.i.us.1, %indvars.iv7475
  %337 = getelementptr inbounds [256 x [256 x [512 x %struct.dcomplex]]], [256 x [256 x [512 x %struct.dcomplex]]]* @main.u1, i64 0, i64 %indvars.iv13.i79, i64 %indvars.iv11.i74.us, i64 %336
  %338 = bitcast %struct.dcomplex* %335 to <2 x i64>*
  %339 = load <2 x i64>, <2 x i64>* %338, align 16, !tbaa !8
  %340 = bitcast %struct.dcomplex* %337 to <2 x i64>*
  store <2 x i64> %339, <2 x i64>* %340, align 16, !tbaa !8
  %indvars.iv.next10.i.us.2 = or i64 %indvars.iv9.i72.us, 3
  %341 = getelementptr inbounds [512 x [18 x %struct.dcomplex]], [512 x [18 x %struct.dcomplex]]* %28, i64 0, i64 %indvars.iv11.i74.us, i64 %indvars.iv.next10.i.us.2
  %342 = add nsw i64 %indvars.iv.next10.i.us.2, %indvars.iv7475
  %343 = getelementptr inbounds [256 x [256 x [512 x %struct.dcomplex]]], [256 x [256 x [512 x %struct.dcomplex]]]* @main.u1, i64 0, i64 %indvars.iv13.i79, i64 %indvars.iv11.i74.us, i64 %342
  %344 = bitcast %struct.dcomplex* %341 to <2 x i64>*
  %345 = load <2 x i64>, <2 x i64>* %344, align 16, !tbaa !8
  %346 = bitcast %struct.dcomplex* %343 to <2 x i64>*
  store <2 x i64> %345, <2 x i64>* %346, align 16, !tbaa !8
  %indvars.iv.next10.i.us.3 = add nuw nsw i64 %indvars.iv9.i72.us, 4
  %niter239.nsub.3 = add i64 %niter239, -4
  %niter239.ncmp.3 = icmp eq i64 %niter239.nsub.3, 0
  br i1 %niter239.ncmp.3, label %.preheader.i43._crit_edge.us.unr-lcssa, label %.preheader.i43.us

.preheader.i43._crit_edge.us.unr-lcssa:           ; preds = %.preheader.i43.us
  br i1 %lcmp.mod228, label %.preheader.i43._crit_edge.us, label %.preheader.i43.us.epil.preheader

.preheader.i43.us.epil.preheader:                 ; preds = %.preheader.i43._crit_edge.us.unr-lcssa
  %347 = add nsw i64 %291, %indvars.iv.next10.i.us.3
  %scevgep32 = getelementptr [256 x [256 x [512 x %struct.dcomplex]]], [256 x [256 x [512 x %struct.dcomplex]]]* @main.u1, i64 0, i64 %indvars.iv13.i79, i64 %indvars.iv11.i74.us, i64 %347
  %scevgep3233 = bitcast %struct.dcomplex* %scevgep32 to i8*
  %scevgep35 = getelementptr [512 x [18 x %struct.dcomplex]], [512 x [18 x %struct.dcomplex]]* %28, i64 0, i64 %indvars.iv11.i74.us, i64 %indvars.iv.next10.i.us.3
  %scevgep3536 = bitcast %struct.dcomplex* %scevgep35 to i8*
  call void @llvm.memcpy.p0i8.p0i8.i64(i8* align 16 %scevgep3233, i8* align 16 %scevgep3536, i64 %181, i1 false)
  br label %.preheader.i43._crit_edge.us

.preheader.i43._crit_edge.us:                     ; preds = %.preheader.i43.us.epil.preheader, %.preheader.i43._crit_edge.us.unr-lcssa
  %indvars.iv.next12.i.us = add nuw nsw i64 %indvars.iv11.i74.us, 1
  %exitcond137 = icmp eq i64 %indvars.iv.next12.i.us, %155
  br i1 %exitcond137, label %.preheader20, label %.preheader.i43.preheader.us, !noelle.parallelizer.looporder !34

.preheader20:                                     ; preds = %.preheader.i43._crit_edge.us, %.preheader.i43._crit_edge.us.us.1, %.preheader16.preheader50, %.preheader48, %483
  %indvars.iv.next75 = add i64 %indvars.iv7475, %149
  %348 = icmp sgt i64 %indvars.iv.next75, %156
  %indvar.next31 = add i64 %indvar30, 1
  br i1 %348, label %.preheader20._crit_edge, label %.preheader16.preheader, !noelle.parallelizer.looporder !32

.preheader20._crit_edge:                          ; preds = %.preheader20, %.preheader20.preheader
  %indvars.iv.next14.i = add nuw nsw i64 %indvars.iv13.i79, 1
  %exitcond138 = icmp eq i64 %indvars.iv.next14.i, %152
  br i1 %exitcond138, label %cffts2.exit, label %.preheader20.preheader, !noelle.parallelizer.looporder !35

cffts2.exit:                                      ; preds = %.preheader20._crit_edge, %ilog2.exit.i.2
  call void @llvm.lifetime.end.p0i8(i64 147456, i8* nonnull %142) #10
  %.b183 = load i1, i1* @dims.0.0, align 16
  %349 = select i1 %.b183, i32 512, i32 0
  br label %.preheader.i2

.preheader.i2:                                    ; preds = %cffts2.exit, %.preheader.i2
  %.01.i = phi i32 [ %351, %.preheader.i2 ], [ 2, %cffts2.exit ]
  %350 = icmp slt i32 %.01.i, %349
  %351 = shl i32 %.01.i, 1
  br i1 %350, label %.preheader.i2, label %ilog2.exit

ilog2.exit:                                       ; preds = %.preheader.i2
  %.b187 = load i1, i1* @dims.0.1, align 16
  %352 = select i1 %.b187, i32 256, i32 0
  br label %.preheader.i2.1

.preheader19.preheader:                           ; preds = %ilog2.exit.2, %.preheader19._crit_edge
  %indvars.iv12.i100 = phi i64 [ %indvars.iv.next13.i, %.preheader19._crit_edge ], [ 0, %ilog2.exit.2 ]
  br i1 %177, label %.preheader19._crit_edge, label %.preheader.i.preheader.preheader, !noelle.parallelizer.looporder !36

.preheader.i.preheader.preheader:                 ; preds = %.preheader19.preheader
  br i1 %brmerge168.demorgan, label %.preheader.i.preheader.us, label %.preheader.i.preheader

.preheader.i.preheader.us:                        ; preds = %.preheader.i.preheader.preheader, %.preheader19.us
  %indvars.iv7696.us = phi i64 [ %indvars.iv.next77.us, %.preheader19.us ], [ 0, %.preheader.i.preheader.preheader ]
  %353 = load i32, i32* getelementptr inbounds (%class.NoelleRuntime, %class.NoelleRuntime* @_ZL7runtime, i64 0, i32 6), align 8, !tbaa !12
  %354 = icmp sgt i32 %353, 1
  br i1 %354, label %378, label %.lr.ph88.split.us.us

.lr.ph88.split.us.us:                             ; preds = %.preheader.i.preheader.us, %._crit_edge85.us.us
  %indvars.iv6.i86.us.us = phi i64 [ %indvars.iv.next7.i.us.us, %._crit_edge85.us.us ], [ 0, %.preheader.i.preheader.us ]
  %355 = add i64 %indvars.iv6.i86.us.us, %indvars.iv7696.us
  %sext.us.us = shl i64 %355, 32
  %356 = ashr exact i64 %sext.us.us, 32
  br label %357

357:                                              ; preds = %357, %.lr.ph88.split.us.us
  %indvars.iv.i482.us.us = phi i64 [ 0, %.lr.ph88.split.us.us ], [ %indvars.iv.next.i5.us.3.us, %357 ]
  %358 = getelementptr inbounds [256 x [256 x [512 x %struct.dcomplex]]], [256 x [256 x [512 x %struct.dcomplex]]]* @main.u1, i64 0, i64 %indvars.iv12.i100, i64 %356, i64 %indvars.iv.i482.us.us
  %359 = getelementptr inbounds [512 x [18 x %struct.dcomplex]], [512 x [18 x %struct.dcomplex]]* %29, i64 0, i64 %indvars.iv.i482.us.us, i64 %indvars.iv6.i86.us.us
  %360 = bitcast %struct.dcomplex* %358 to <2 x i64>*
  %361 = load <2 x i64>, <2 x i64>* %360, align 16, !tbaa !8
  %362 = bitcast %struct.dcomplex* %359 to <2 x i64>*
  store <2 x i64> %361, <2 x i64>* %362, align 16, !tbaa !8
  %indvars.iv.next.i5.us.us = or i64 %indvars.iv.i482.us.us, 1
  %363 = getelementptr inbounds [256 x [256 x [512 x %struct.dcomplex]]], [256 x [256 x [512 x %struct.dcomplex]]]* @main.u1, i64 0, i64 %indvars.iv12.i100, i64 %356, i64 %indvars.iv.next.i5.us.us
  %364 = getelementptr inbounds [512 x [18 x %struct.dcomplex]], [512 x [18 x %struct.dcomplex]]* %29, i64 0, i64 %indvars.iv.next.i5.us.us, i64 %indvars.iv6.i86.us.us
  %365 = bitcast %struct.dcomplex* %363 to <2 x i64>*
  %366 = load <2 x i64>, <2 x i64>* %365, align 16, !tbaa !8
  %367 = bitcast %struct.dcomplex* %364 to <2 x i64>*
  store <2 x i64> %366, <2 x i64>* %367, align 16, !tbaa !8
  %indvars.iv.next.i5.us.1.us = or i64 %indvars.iv.i482.us.us, 2
  %368 = getelementptr inbounds [256 x [256 x [512 x %struct.dcomplex]]], [256 x [256 x [512 x %struct.dcomplex]]]* @main.u1, i64 0, i64 %indvars.iv12.i100, i64 %356, i64 %indvars.iv.next.i5.us.1.us
  %369 = getelementptr inbounds [512 x [18 x %struct.dcomplex]], [512 x [18 x %struct.dcomplex]]* %29, i64 0, i64 %indvars.iv.next.i5.us.1.us, i64 %indvars.iv6.i86.us.us
  %370 = bitcast %struct.dcomplex* %368 to <2 x i64>*
  %371 = load <2 x i64>, <2 x i64>* %370, align 16, !tbaa !8
  %372 = bitcast %struct.dcomplex* %369 to <2 x i64>*
  store <2 x i64> %371, <2 x i64>* %372, align 16, !tbaa !8
  %indvars.iv.next.i5.us.2.us = or i64 %indvars.iv.i482.us.us, 3
  %373 = getelementptr inbounds [256 x [256 x [512 x %struct.dcomplex]]], [256 x [256 x [512 x %struct.dcomplex]]]* @main.u1, i64 0, i64 %indvars.iv12.i100, i64 %356, i64 %indvars.iv.next.i5.us.2.us
  %374 = getelementptr inbounds [512 x [18 x %struct.dcomplex]], [512 x [18 x %struct.dcomplex]]* %29, i64 0, i64 %indvars.iv.next.i5.us.2.us, i64 %indvars.iv6.i86.us.us
  %375 = bitcast %struct.dcomplex* %373 to <2 x i64>*
  %376 = load <2 x i64>, <2 x i64>* %375, align 16, !tbaa !8
  %377 = bitcast %struct.dcomplex* %374 to <2 x i64>*
  store <2 x i64> %376, <2 x i64>* %377, align 16, !tbaa !8
  %indvars.iv.next.i5.us.3.us = add nuw nsw i64 %indvars.iv.i482.us.us, 4
  %exitcond140.3.us = icmp eq i64 %indvars.iv.next.i5.us.3.us, %162
  br i1 %exitcond140.3.us, label %._crit_edge85.us.us, label %357, !noelle.parallelizer.looporder !37

._crit_edge85.us.us:                              ; preds = %357
  %indvars.iv.next7.i.us.us = add nuw nsw i64 %indvars.iv6.i86.us.us, 1
  %exitcond141.us = icmp eq i64 %indvars.iv.next7.i.us.us, %149
  br i1 %exitcond141.us, label %cfftz.exit.i.us, label %.lr.ph88.split.us.us, !noelle.parallelizer.looporder !38

378:                                              ; preds = %.preheader.i.preheader.us
  store i64 %149, i64* %33, align 8, !noelle.environment_variable.live_in.store_pointer !24
  store [512 x [18 x %struct.dcomplex]]* %29, [512 x [18 x %struct.dcomplex]]** %11, align 8, !noelle.environment_variable.live_in.store_pointer !25
  store i64 %162, i64* %34, align 8, !noelle.environment_variable.live_in.store_pointer !26
  store i64 %indvars.iv12.i100, i64* %12, align 8, !noelle.environment_variable.live_in.store_pointer !27
  store i64 %indvars.iv7696.us, i64* %35, align 8, !noelle.environment_variable.live_in.store_pointer !11
  %379 = call { i32, i64 } @NOELLE_DOALLDispatcher(void (i8*, i64, i64, i64)* nonnull @noelle_task_5, i8* nonnull %9, i64 8, i64 8) #10
  %.pre46 = load i32, i32* getelementptr inbounds (%class.NoelleRuntime, %class.NoelleRuntime* @_ZL7runtime, i64 0, i32 6), align 8, !tbaa !12
  br label %cfftz.exit.i.us

cfftz.exit.i.us:                                  ; preds = %._crit_edge85.us.us, %378
  %380 = phi i32 [ %.pre46, %378 ], [ %353, %._crit_edge85.us.us ]
  %381 = icmp sgt i32 %380, 1
  br i1 %381, label %404, label %.lr.ph95.split.us.us

.lr.ph95.split.us.us:                             ; preds = %cfftz.exit.i.us, %._crit_edge92.us.us
  %indvars.iv10.i93.us.us = phi i64 [ %indvars.iv.next11.i.us.us, %._crit_edge92.us.us ], [ 0, %cfftz.exit.i.us ]
  %382 = add nsw i64 %indvars.iv10.i93.us.us, %indvars.iv7696.us
  br label %383

383:                                              ; preds = %383, %.lr.ph95.split.us.us
  %indvars.iv8.i89.us.us = phi i64 [ 0, %.lr.ph95.split.us.us ], [ %indvars.iv.next9.i.us.3.us, %383 ]
  %384 = getelementptr inbounds [512 x [18 x %struct.dcomplex]], [512 x [18 x %struct.dcomplex]]* %29, i64 0, i64 %indvars.iv8.i89.us.us, i64 %indvars.iv10.i93.us.us
  %385 = getelementptr inbounds [256 x [256 x [512 x %struct.dcomplex]]], [256 x [256 x [512 x %struct.dcomplex]]]* @main.u2, i64 0, i64 %indvars.iv12.i100, i64 %382, i64 %indvars.iv8.i89.us.us
  %386 = bitcast %struct.dcomplex* %384 to <2 x i64>*
  %387 = load <2 x i64>, <2 x i64>* %386, align 16, !tbaa !8
  %388 = bitcast %struct.dcomplex* %385 to <2 x i64>*
  store <2 x i64> %387, <2 x i64>* %388, align 16, !tbaa !8
  %indvars.iv.next9.i.us.us = or i64 %indvars.iv8.i89.us.us, 1
  %389 = getelementptr inbounds [512 x [18 x %struct.dcomplex]], [512 x [18 x %struct.dcomplex]]* %29, i64 0, i64 %indvars.iv.next9.i.us.us, i64 %indvars.iv10.i93.us.us
  %390 = getelementptr inbounds [256 x [256 x [512 x %struct.dcomplex]]], [256 x [256 x [512 x %struct.dcomplex]]]* @main.u2, i64 0, i64 %indvars.iv12.i100, i64 %382, i64 %indvars.iv.next9.i.us.us
  %391 = bitcast %struct.dcomplex* %389 to <2 x i64>*
  %392 = load <2 x i64>, <2 x i64>* %391, align 16, !tbaa !8
  %393 = bitcast %struct.dcomplex* %390 to <2 x i64>*
  store <2 x i64> %392, <2 x i64>* %393, align 16, !tbaa !8
  %indvars.iv.next9.i.us.1.us = or i64 %indvars.iv8.i89.us.us, 2
  %394 = getelementptr inbounds [512 x [18 x %struct.dcomplex]], [512 x [18 x %struct.dcomplex]]* %29, i64 0, i64 %indvars.iv.next9.i.us.1.us, i64 %indvars.iv10.i93.us.us
  %395 = getelementptr inbounds [256 x [256 x [512 x %struct.dcomplex]]], [256 x [256 x [512 x %struct.dcomplex]]]* @main.u2, i64 0, i64 %indvars.iv12.i100, i64 %382, i64 %indvars.iv.next9.i.us.1.us
  %396 = bitcast %struct.dcomplex* %394 to <2 x i64>*
  %397 = load <2 x i64>, <2 x i64>* %396, align 16, !tbaa !8
  %398 = bitcast %struct.dcomplex* %395 to <2 x i64>*
  store <2 x i64> %397, <2 x i64>* %398, align 16, !tbaa !8
  %indvars.iv.next9.i.us.2.us = or i64 %indvars.iv8.i89.us.us, 3
  %399 = getelementptr inbounds [512 x [18 x %struct.dcomplex]], [512 x [18 x %struct.dcomplex]]* %29, i64 0, i64 %indvars.iv.next9.i.us.2.us, i64 %indvars.iv10.i93.us.us
  %400 = getelementptr inbounds [256 x [256 x [512 x %struct.dcomplex]]], [256 x [256 x [512 x %struct.dcomplex]]]* @main.u2, i64 0, i64 %indvars.iv12.i100, i64 %382, i64 %indvars.iv.next9.i.us.2.us
  %401 = bitcast %struct.dcomplex* %399 to <2 x i64>*
  %402 = load <2 x i64>, <2 x i64>* %401, align 16, !tbaa !8
  %403 = bitcast %struct.dcomplex* %400 to <2 x i64>*
  store <2 x i64> %402, <2 x i64>* %403, align 16, !tbaa !8
  %indvars.iv.next9.i.us.3.us = add nuw nsw i64 %indvars.iv8.i89.us.us, 4
  %exitcond143.3.us = icmp eq i64 %indvars.iv.next9.i.us.3.us, %162
  br i1 %exitcond143.3.us, label %._crit_edge92.us.us, label %383, !noelle.parallelizer.looporder !39

._crit_edge92.us.us:                              ; preds = %383
  %indvars.iv.next11.i.us.us = add nuw nsw i64 %indvars.iv10.i93.us.us, 1
  %exitcond144.us = icmp eq i64 %indvars.iv.next11.i.us.us, %149
  br i1 %exitcond144.us, label %.preheader19.us, label %.lr.ph95.split.us.us, !noelle.parallelizer.looporder !40

404:                                              ; preds = %cfftz.exit.i.us
  store i64 %149, i64* %30, align 8, !noelle.environment_variable.live_in.store_pointer !24
  store [512 x [18 x %struct.dcomplex]]* %29, [512 x [18 x %struct.dcomplex]]** %7, align 8, !noelle.environment_variable.live_in.store_pointer !25
  store i64 %162, i64* %31, align 8, !noelle.environment_variable.live_in.store_pointer !26
  store i64 %indvars.iv12.i100, i64* %8, align 8, !noelle.environment_variable.live_in.store_pointer !27
  store i64 %indvars.iv7696.us, i64* %32, align 8, !noelle.environment_variable.live_in.store_pointer !11
  %405 = call { i32, i64 } @NOELLE_DOALLDispatcher(void (i8*, i64, i64, i64)* nonnull @noelle_task_6, i8* nonnull %5, i64 8, i64 8) #10
  br label %.preheader19.us

.preheader19.us:                                  ; preds = %._crit_edge92.us.us, %404
  %indvars.iv.next77.us = add i64 %indvars.iv7696.us, %149
  %406 = icmp sgt i64 %indvars.iv.next77.us, %163
  br i1 %406, label %.preheader19._crit_edge, label %.preheader.i.preheader.us, !noelle.parallelizer.looporder !36

.preheader.i.preheader:                           ; preds = %.preheader.i.preheader.preheader, %.preheader19
  %indvars.iv7696 = phi i64 [ %indvars.iv.next77, %.preheader19 ], [ 0, %.preheader.i.preheader.preheader ]
  %407 = load i32, i32* getelementptr inbounds (%class.NoelleRuntime, %class.NoelleRuntime* @_ZL7runtime, i64 0, i32 6), align 8, !tbaa !12
  %408 = icmp sgt i32 %407, 1
  br i1 %408, label %cfftz.exit.i, label %.preheader19

cfftz.exit.i:                                     ; preds = %.preheader.i.preheader
  store i64 %149, i64* %33, align 8, !noelle.environment_variable.live_in.store_pointer !24
  store [512 x [18 x %struct.dcomplex]]* %29, [512 x [18 x %struct.dcomplex]]** %11, align 8, !noelle.environment_variable.live_in.store_pointer !25
  store i64 %162, i64* %34, align 8, !noelle.environment_variable.live_in.store_pointer !26
  store i64 %indvars.iv12.i100, i64* %12, align 8, !noelle.environment_variable.live_in.store_pointer !27
  store i64 %indvars.iv7696, i64* %35, align 8, !noelle.environment_variable.live_in.store_pointer !11
  %409 = call { i32, i64 } @NOELLE_DOALLDispatcher(void (i8*, i64, i64, i64)* nonnull @noelle_task_5, i8* nonnull %9, i64 8, i64 8) #10
  %.pre45 = load i32, i32* getelementptr inbounds (%class.NoelleRuntime, %class.NoelleRuntime* @_ZL7runtime, i64 0, i32 6), align 8, !tbaa !12
  %410 = icmp sgt i32 %.pre45, 1
  br i1 %410, label %485, label %.preheader19

.preheader19:                                     ; preds = %.preheader.i.preheader, %cfftz.exit.i, %485
  %indvars.iv.next77 = add i64 %indvars.iv7696, %149
  %411 = icmp sgt i64 %indvars.iv.next77, %163
  br i1 %411, label %.preheader19._crit_edge, label %.preheader.i.preheader, !noelle.parallelizer.looporder !36

.preheader19._crit_edge:                          ; preds = %.preheader19, %.preheader19.us, %.preheader19.preheader
  %indvars.iv.next13.i = add nuw nsw i64 %indvars.iv12.i100, 1
  %exitcond145 = icmp eq i64 %indvars.iv.next13.i, %158
  br i1 %exitcond145, label %cffts1.exit, label %.preheader19.preheader, !noelle.parallelizer.looporder !41

cffts1.exit:                                      ; preds = %.preheader19._crit_edge, %ilog2.exit.2
  call void @llvm.lifetime.end.p0i8(i64 147456, i8* nonnull %143) #10
  br i1 %brmerge.demorgan53, label %cffts1.exit.split.us.split.us, label %checksum.exit

cffts1.exit.split.us.split.us:                    ; preds = %cffts1.exit, %._crit_edge.i.us.us
  %.0.i102.us.us = phi i32 [ %438, %._crit_edge.i.us.us ], [ 1, %cffts1.exit ]
  %412 = phi <2 x double> [ %437, %._crit_edge.i.us.us ], [ zeroinitializer, %cffts1.exit ]
  %413 = and i32 %.0.i102.us.us, 511
  %414 = add nuw nsw i32 %413, 1
  %415 = icmp ult i32 %414, %164
  br i1 %415, label %._crit_edge.i.us.us, label %416

416:                                              ; preds = %cffts1.exit.split.us.split.us
  %417 = mul nuw nsw i32 %.0.i102.us.us, 3
  %418 = and i32 %417, 255
  %419 = add nuw nsw i32 %418, 1
  %420 = icmp ult i32 %419, %165
  br i1 %420, label %._crit_edge.i.us.us, label %421

421:                                              ; preds = %416
  %422 = mul nuw nsw i32 %.0.i102.us.us, 5
  %423 = and i32 %422, 255
  %424 = add nuw nsw i32 %423, 1
  %425 = icmp uge i32 %424, %166
  %or.cond4.i.us.us = and i1 %.b182, %425
  br i1 %or.cond4.i.us.us, label %426, label %._crit_edge.i.us.us

426:                                              ; preds = %421
  %427 = sub nuw nsw i32 %424, %166
  %428 = sext i32 %427 to i64
  %429 = sub nuw nsw i32 %419, %165
  %430 = sext i32 %429 to i64
  %431 = sub nuw nsw i32 %414, %164
  %432 = sext i32 %431 to i64
  %433 = getelementptr inbounds [256 x [256 x [512 x %struct.dcomplex]]], [256 x [256 x [512 x %struct.dcomplex]]]* @main.u2, i64 0, i64 %428, i64 %430, i64 %432, i32 0
  %434 = bitcast double* %433 to <2 x double>*
  %435 = load <2 x double>, <2 x double>* %434, align 16, !tbaa !8
  %436 = fadd <2 x double> %412, %435
  br label %._crit_edge.i.us.us

._crit_edge.i.us.us:                              ; preds = %416, %cffts1.exit.split.us.split.us, %426, %421
  %437 = phi <2 x double> [ %436, %426 ], [ %412, %cffts1.exit.split.us.split.us ], [ %412, %416 ], [ %412, %421 ]
  %438 = add nuw nsw i32 %.0.i102.us.us, 1
  %exitcond.i.us.us = icmp eq i32 %438, 1025
  br i1 %exitcond.i.us.us, label %checksum.exit, label %cffts1.exit.split.us.split.us

checksum.exit:                                    ; preds = %._crit_edge.i.us.us, %cffts1.exit
  %.lcssa = phi <2 x double> [ zeroinitializer, %cffts1.exit ], [ %437, %._crit_edge.i.us.us ]
  %439 = getelementptr inbounds [21 x %struct.dcomplex], [21 x %struct.dcomplex]* @sums, i64 0, i64 %indvars.iv105, i32 0
  %440 = bitcast double* %439 to <2 x double>*
  %441 = load <2 x double>, <2 x double>* %440, align 16, !tbaa !8
  %442 = fadd <2 x double> %.lcssa, %441
  %443 = fmul <2 x double> %442, <double 0x3E60000000000000, double 0x3E60000000000000>
  store <2 x double> %443, <2 x double>* %440, align 16, !tbaa !8
  %444 = extractelement <2 x double> %443, i32 0
  %445 = extractelement <2 x double> %443, i32 1
  %446 = tail call i32 (i8*, ...) @printf(i8* getelementptr inbounds ([40 x i8], [40 x i8]* @.str.14, i64 0, i64 0), i32 %186, double %444, double %445) #10
  %indvars.iv.next = add nuw nsw i64 %indvars.iv105, 1
  %exitcond1 = icmp eq i64 %indvars.iv.next, %167
  br i1 %exitcond1, label %.preheader.preheader, label %checksum.exit._crit_edge, !noelle.parallelizer.looporder !11

checksum.exit._crit_edge:                         ; preds = %checksum.exit
  %.pre.b = load i1, i1* @dims.0.2, align 8
  %.pre = select i1 %.pre.b, i32 256, i32 0
  %.pre150.b = load i1, i1* @dims.0.1, align 16
  %.pre150 = select i1 %.pre150.b, i32 256, i32 0
  %.pre151.b = load i1, i1* @dims.0.0, align 16
  %.pre151 = select i1 %.pre151.b, i32 512, i32 0
  br label %182

.preheader:                                       ; preds = %455
  %exitcond.i1 = icmp eq i64 %indvars.iv.next.i, 21
  br i1 %exitcond.i1, label %verify.exit, label %.preheader.preheader

.preheader.preheader:                             ; preds = %checksum.exit, %.preheader
  %indvars.iv.i55 = phi i64 [ %indvars.iv.next.i, %.preheader ], [ 1, %checksum.exit ]
  %447 = getelementptr inbounds [21 x %struct.dcomplex], [21 x %struct.dcomplex]* @sums, i64 0, i64 %indvars.iv.i55, i32 0
  %448 = load double, double* %447, align 16, !tbaa !42
  %449 = getelementptr inbounds [21 x double], [21 x double]* @__const.verify.vdata_real_b, i64 0, i64 %indvars.iv.i55
  %450 = load double, double* %449, align 8, !tbaa !8
  %451 = fsub double %448, %450
  %452 = fdiv double %451, %450
  %453 = tail call double @llvm.fabs.f64(double %452) #10
  %454 = fcmp ogt double %453, 0x3D719799812DEA11
  br i1 %454, label %verify.exit, label %455

455:                                              ; preds = %.preheader.preheader
  %456 = getelementptr inbounds [21 x %struct.dcomplex], [21 x %struct.dcomplex]* @sums, i64 0, i64 %indvars.iv.i55, i32 1
  %457 = load double, double* %456, align 8, !tbaa !44
  %458 = getelementptr inbounds [21 x double], [21 x double]* @__const.verify.vdata_imag_b, i64 0, i64 %indvars.iv.i55
  %459 = load double, double* %458, align 8, !tbaa !8
  %460 = fsub double %457, %459
  %461 = fdiv double %460, %459
  %462 = tail call double @llvm.fabs.f64(double %461) #10
  %463 = fcmp ogt double %462, 0x3D719799812DEA11
  %indvars.iv.next.i = add nuw nsw i64 %indvars.iv.i55, 1
  br i1 %463, label %verify.exit, label %.preheader

verify.exit:                                      ; preds = %.preheader, %.preheader.preheader, %455, %compute_indexmap.exit39
  %.sink = phi i8* [ getelementptr inbounds ([27 x i8], [27 x i8]* @str.1, i64 0, i64 0), %compute_indexmap.exit39 ], [ getelementptr inbounds ([31 x i8], [31 x i8]* @str.2, i64 0, i64 0), %455 ], [ getelementptr inbounds ([31 x i8], [31 x i8]* @str.2, i64 0, i64 0), %.preheader.preheader ], [ getelementptr inbounds ([31 x i8], [31 x i8]* @str.2, i64 0, i64 0), %.preheader ]
  %.0144 = phi i32 [ 1, %compute_indexmap.exit39 ], [ 1, %.preheader ], [ 0, %.preheader.preheader ], [ 0, %455 ]
  %.0342 = phi i8 [ 85, %compute_indexmap.exit39 ], [ 66, %455 ], [ 66, %.preheader.preheader ], [ 66, %.preheader ]
  %puts.i = tail call i32 @puts(i8* nonnull %.sink) #10
  %464 = zext i8 %.0342 to i32
  %465 = tail call i32 (i8*, ...) @printf(i8* getelementptr inbounds ([13 x i8], [13 x i8]* @.str.17, i64 0, i64 0), i32 %464) #10
  %466 = bitcast double* %4 to i8*
  call void @llvm.lifetime.start.p0i8(i64 8, i8* nonnull %466) #10
  call void @wtime_(double* nonnull %4) #10
  %467 = load double, double* %4, align 8, !tbaa !8
  call void @llvm.lifetime.end.p0i8(i64 8, i8* nonnull %466) #10
  %468 = load double, double* getelementptr inbounds ([64 x double], [64 x double]* @start, i64 0, i64 0), align 16, !tbaa !8
  %469 = fsub double %467, %468
  %470 = load double, double* getelementptr inbounds ([64 x double], [64 x double]* @elapsed, i64 0, i64 0), align 16, !tbaa !8
  %471 = fadd double %470, %469
  store double %471, double* getelementptr inbounds ([64 x double], [64 x double]* @elapsed, i64 0, i64 0), align 16, !tbaa !8
  %472 = fcmp une double %471, 0.000000e+00
  %.b3 = load i1, i1* @niter, align 4
  br i1 %472, label %473, label %._crit_edge

473:                                              ; preds = %verify.exit
  %474 = select i1 %.b3, double 0x40F6795974D4B09E, double 0x40B249838638FC9C
  %475 = fdiv double %474, %471
  br label %._crit_edge

._crit_edge:                                      ; preds = %verify.exit, %473
  %.0 = phi double [ %475, %473 ], [ 0.000000e+00, %verify.exit ]
  %476 = select i1 %.b3, i32 20, i32 0
  tail call void @c_print_results(i8* getelementptr inbounds ([3 x i8], [3 x i8]* @.str, i64 0, i64 0), i8 signext %.0342, i32 512, i32 256, i32 256, i32 %476, i32 1, double %471, double %.0, i8* getelementptr inbounds ([25 x i8], [25 x i8]* @.str.1, i64 0, i64 0), i32 %.0144, i8* getelementptr inbounds ([15 x i8], [15 x i8]* @.str.2, i64 0, i64 0), i8* getelementptr inbounds ([12 x i8], [12 x i8]* @.str.3, i64 0, i64 0), i8* getelementptr inbounds ([7 x i8], [7 x i8]* @.str.4, i64 0, i64 0), i8* getelementptr inbounds ([7 x i8], [7 x i8]* @.str.4, i64 0, i64 0), i8* getelementptr inbounds ([7 x i8], [7 x i8]* @.str.5, i64 0, i64 0), i8* getelementptr inbounds ([12 x i8], [12 x i8]* @.str.6, i64 0, i64 0), i8* getelementptr inbounds ([36 x i8], [36 x i8]* @.str.7, i64 0, i64 0), i8* getelementptr inbounds ([19 x i8], [19 x i8]* @.str.8, i64 0, i64 0), i8* getelementptr inbounds ([7 x i8], [7 x i8]* @.str.9, i64 0, i64 0))
  ret i32 0

477:                                              ; preds = %.preheader18.preheader
  store [512 x [18 x %struct.dcomplex]]* %27, [512 x [18 x %struct.dcomplex]]** %45, align 8, !noelle.environment_variable.live_in.store_pointer !24
  store i64 %149, i64* %25, align 8, !noelle.environment_variable.live_in.store_pointer !25
  store i64 %150, i64* %46, align 8, !noelle.environment_variable.live_in.store_pointer !26
  store i64 %indvars.iv13.i1466, i64* %26, align 8, !noelle.environment_variable.live_in.store_pointer !27
  store i64 %indvars.iv7262, i64* %47, align 8, !noelle.environment_variable.live_in.store_pointer !11
  %478 = call { i32, i64 } @NOELLE_DOALLDispatcher(void (i8*, i64, i64, i64)* nonnull @noelle_task_1, i8* nonnull %24, i64 8, i64 8) #10
  %.pre43 = load i32, i32* getelementptr inbounds (%class.NoelleRuntime, %class.NoelleRuntime* @_ZL7runtime, i64 0, i32 6), align 8, !tbaa !12
  br label %cfftz.exit.i56

479:                                              ; preds = %.preheader16.preheader
  store i64 %149, i64* %42, align 8, !noelle.environment_variable.live_in.store_pointer !24
  store [512 x [18 x %struct.dcomplex]]* %28, [512 x [18 x %struct.dcomplex]]** %22, align 8, !noelle.environment_variable.live_in.store_pointer !25
  store i64 %155, i64* %43, align 8, !noelle.environment_variable.live_in.store_pointer !26
  store i64 %indvars.iv13.i79, i64* %23, align 8, !noelle.environment_variable.live_in.store_pointer !27
  store i64 %indvars.iv7475, i64* %44, align 8, !noelle.environment_variable.live_in.store_pointer !11
  %480 = call { i32, i64 } @NOELLE_DOALLDispatcher(void (i8*, i64, i64, i64)* nonnull @noelle_task_2, i8* nonnull %20, i64 8, i64 8) #10
  %.pre44 = load i32, i32* getelementptr inbounds (%class.NoelleRuntime, %class.NoelleRuntime* @_ZL7runtime, i64 0, i32 6), align 8, !tbaa !12
  br label %cfftz.exit.i42

481:                                              ; preds = %cfftz.exit.i56
  store [512 x [18 x %struct.dcomplex]]* %27, [512 x [18 x %struct.dcomplex]]** %39, align 8, !noelle.environment_variable.live_in.store_pointer !24
  store i64 %149, i64* %18, align 8, !noelle.environment_variable.live_in.store_pointer !25
  store i64 %150, i64* %40, align 8, !noelle.environment_variable.live_in.store_pointer !26
  store i64 %indvars.iv13.i1466, i64* %19, align 8, !noelle.environment_variable.live_in.store_pointer !27
  store i64 %indvars.iv7262, i64* %41, align 8, !noelle.environment_variable.live_in.store_pointer !11
  %482 = call { i32, i64 } @NOELLE_DOALLDispatcher(void (i8*, i64, i64, i64)* nonnull @noelle_task_3, i8* nonnull %17, i64 8, i64 8) #10
  br label %.preheader21

483:                                              ; preds = %cfftz.exit.i42
  store i64 %149, i64* %36, align 8, !noelle.environment_variable.live_in.store_pointer !24
  store [512 x [18 x %struct.dcomplex]]* %28, [512 x [18 x %struct.dcomplex]]** %15, align 8, !noelle.environment_variable.live_in.store_pointer !25
  store i64 %155, i64* %37, align 8, !noelle.environment_variable.live_in.store_pointer !26
  store i64 %indvars.iv13.i79, i64* %16, align 8, !noelle.environment_variable.live_in.store_pointer !27
  store i64 %indvars.iv7475, i64* %38, align 8, !noelle.environment_variable.live_in.store_pointer !11
  %484 = call { i32, i64 } @NOELLE_DOALLDispatcher(void (i8*, i64, i64, i64)* nonnull @noelle_task_4, i8* nonnull %13, i64 8, i64 8) #10
  br label %.preheader20

485:                                              ; preds = %cfftz.exit.i
  store i64 %149, i64* %30, align 8, !noelle.environment_variable.live_in.store_pointer !24
  store [512 x [18 x %struct.dcomplex]]* %29, [512 x [18 x %struct.dcomplex]]** %7, align 8, !noelle.environment_variable.live_in.store_pointer !25
  store i64 %162, i64* %31, align 8, !noelle.environment_variable.live_in.store_pointer !26
  store i64 %indvars.iv12.i100, i64* %8, align 8, !noelle.environment_variable.live_in.store_pointer !27
  store i64 %indvars.iv7696, i64* %32, align 8, !noelle.environment_variable.live_in.store_pointer !11
  %486 = call { i32, i64 } @NOELLE_DOALLDispatcher(void (i8*, i64, i64, i64)* nonnull @noelle_task_6, i8* nonnull %5, i64 8, i64 8) #10
  br label %.preheader19

.preheader.i2.i9.1:                               ; preds = %ilog2.exit.i13, %.preheader.i2.i9.1
  %.01.i.i8.1 = phi i32 [ %488, %.preheader.i2.i9.1 ], [ 2, %ilog2.exit.i13 ]
  %487 = icmp slt i32 %.01.i.i8.1, %228
  %488 = shl i32 %.01.i.i8.1, 1
  br i1 %487, label %.preheader.i2.i9.1, label %ilog2.exit.i13.1

ilog2.exit.i13.1:                                 ; preds = %.preheader.i2.i9.1
  %.b201 = load i1, i1* @dims.2.2, align 8
  %489 = select i1 %.b201, i32 256, i32 0
  br label %.preheader.i2.i9.2

.preheader.i2.i9.2:                               ; preds = %ilog2.exit.i13.1, %.preheader.i2.i9.2
  %.01.i.i8.2 = phi i32 [ %491, %.preheader.i2.i9.2 ], [ 2, %ilog2.exit.i13.1 ]
  %490 = icmp slt i32 %.01.i.i8.2, %489
  %491 = shl i32 %.01.i.i8.2, 1
  br i1 %490, label %.preheader.i2.i9.2, label %ilog2.exit.i13.2

ilog2.exit.i13.2:                                 ; preds = %.preheader.i2.i9.2
  call void @llvm.lifetime.start.p0i8(i64 147456, i8* nonnull %141) #10
  br i1 %.b200, label %.preheader21.preheader, label %cffts3.exit, !noelle.parallelizer.looporder !31

.preheader.i2.i.1:                                ; preds = %ilog2.exit.i, %.preheader.i2.i.1
  %.01.i.i.1 = phi i32 [ %493, %.preheader.i2.i.1 ], [ 2, %ilog2.exit.i ]
  %492 = icmp slt i32 %.01.i.i.1, %290
  %493 = shl i32 %.01.i.i.1, 1
  br i1 %492, label %.preheader.i2.i.1, label %ilog2.exit.i.1

ilog2.exit.i.1:                                   ; preds = %.preheader.i2.i.1
  %.b195 = load i1, i1* @dims.1.2, align 8
  %494 = select i1 %.b195, i32 256, i32 0
  br label %.preheader.i2.i.2

.preheader.i2.i.2:                                ; preds = %ilog2.exit.i.1, %.preheader.i2.i.2
  %.01.i.i.2 = phi i32 [ %496, %.preheader.i2.i.2 ], [ 2, %ilog2.exit.i.1 ]
  %495 = icmp slt i32 %.01.i.i.2, %494
  %496 = shl i32 %.01.i.i.2, 1
  br i1 %495, label %.preheader.i2.i.2, label %ilog2.exit.i.2

ilog2.exit.i.2:                                   ; preds = %.preheader.i2.i.2
  call void @llvm.lifetime.start.p0i8(i64 147456, i8* nonnull %142) #10
  br i1 %.b196, label %.preheader20.preheader, label %cffts2.exit, !noelle.parallelizer.looporder !35

.preheader.i2.1:                                  ; preds = %ilog2.exit, %.preheader.i2.1
  %.01.i.1 = phi i32 [ %498, %.preheader.i2.1 ], [ 2, %ilog2.exit ]
  %497 = icmp slt i32 %.01.i.1, %352
  %498 = shl i32 %.01.i.1, 1
  br i1 %497, label %.preheader.i2.1, label %ilog2.exit.1

ilog2.exit.1:                                     ; preds = %.preheader.i2.1
  %.b189 = load i1, i1* @dims.0.2, align 8
  %499 = select i1 %.b189, i32 256, i32 0
  br label %.preheader.i2.2

.preheader.i2.2:                                  ; preds = %ilog2.exit.1, %.preheader.i2.2
  %.01.i.2 = phi i32 [ %501, %.preheader.i2.2 ], [ 2, %ilog2.exit.1 ]
  %500 = icmp slt i32 %.01.i.2, %499
  %501 = shl i32 %.01.i.2, 1
  br i1 %500, label %.preheader.i2.2, label %ilog2.exit.2

ilog2.exit.2:                                     ; preds = %.preheader.i2.2
  call void @llvm.lifetime.start.p0i8(i64 147456, i8* nonnull %143) #10
  br i1 %.b190, label %.preheader19.preheader, label %cffts1.exit, !noelle.parallelizer.looporder !41

.preheader1.i18.us.epil.us.1:                     ; preds = %.preheader1.i18._crit_edge.us.us
  %502 = getelementptr inbounds [256 x [256 x [512 x %struct.dcomplex]]], [256 x [256 x [512 x %struct.dcomplex]]]* @main.u1, i64 0, i64 %indvars.iv.next8.i21.us.us, i64 %indvars.iv13.i1466, i64 %232
  %503 = getelementptr inbounds [512 x [18 x %struct.dcomplex]], [512 x [18 x %struct.dcomplex]]* %27, i64 0, i64 %indvars.iv.next8.i21.us.us, i64 0
  %504 = bitcast %struct.dcomplex* %502 to <2 x i64>*
  %505 = load <2 x i64>, <2 x i64>* %504, align 16, !tbaa !8
  %506 = bitcast %struct.dcomplex* %503 to <2 x i64>*
  store <2 x i64> %505, <2 x i64>* %506, align 16, !tbaa !8
  br label %.preheader1.i18._crit_edge.us.us.1

.preheader1.i18._crit_edge.us.us.1:               ; preds = %.preheader1.i18.us.epil.us.1, %.preheader1.i18._crit_edge.us.us
  %indvars.iv.next8.i21.us.us.1 = add nuw nsw i64 %indvars.iv7.i1758.us.us, 2
  %exitcond127.us.1 = icmp eq i64 %indvars.iv.next8.i21.us.us.1, %150
  br i1 %exitcond127.us.1, label %cfftz.exit.i56, label %.preheader1.i18.preheader.us.us, !noelle.parallelizer.looporder !29

.preheader.i58.us.epil.us.preheader.1:            ; preds = %.preheader.i58._crit_edge.us.us
  %scevgep27.1 = getelementptr [512 x [18 x %struct.dcomplex]], [512 x [18 x %struct.dcomplex]]* %27, i64 0, i64 %indvars.iv.next12.i61.us.us, i64 0
  %scevgep2728.1 = bitcast %struct.dcomplex* %scevgep27.1 to i8*
  %scevgep25.1 = getelementptr [256 x [256 x [512 x %struct.dcomplex]]], [256 x [256 x [512 x %struct.dcomplex]]]* @main.u1, i64 0, i64 %indvars.iv.next12.i61.us.us, i64 %indvars.iv13.i1466, i64 %229
  %scevgep2526.1 = bitcast %struct.dcomplex* %scevgep25.1 to i8*
  call void @llvm.memcpy.p0i8.p0i8.i64(i8* align 16 %scevgep2526.1, i8* align 16 %scevgep2728.1, i64 %181, i1 false)
  br label %.preheader.i58._crit_edge.us.us.1

.preheader.i58._crit_edge.us.us.1:                ; preds = %.preheader.i58.us.epil.us.preheader.1, %.preheader.i58._crit_edge.us.us
  %indvars.iv.next12.i61.us.us.1 = add nuw nsw i64 %indvars.iv11.i5761.us.us, 2
  %exitcond130.us.1 = icmp eq i64 %indvars.iv.next12.i61.us.us.1, %150
  br i1 %exitcond130.us.1, label %.preheader21, label %.preheader.i58.preheader.us.us, !noelle.parallelizer.looporder !30

.preheader1.i.us.epil.us.1:                       ; preds = %.preheader1.i._crit_edge.us.us
  %507 = getelementptr inbounds [256 x [256 x [512 x %struct.dcomplex]]], [256 x [256 x [512 x %struct.dcomplex]]]* @main.u1, i64 0, i64 %indvars.iv13.i79, i64 %indvars.iv.next8.i.us.us, i64 %294
  %508 = getelementptr inbounds [512 x [18 x %struct.dcomplex]], [512 x [18 x %struct.dcomplex]]* %28, i64 0, i64 %indvars.iv.next8.i.us.us, i64 0
  %509 = bitcast %struct.dcomplex* %507 to <2 x i64>*
  %510 = load <2 x i64>, <2 x i64>* %509, align 16, !tbaa !8
  %511 = bitcast %struct.dcomplex* %508 to <2 x i64>*
  store <2 x i64> %510, <2 x i64>* %511, align 16, !tbaa !8
  br label %.preheader1.i._crit_edge.us.us.1

.preheader1.i._crit_edge.us.us.1:                 ; preds = %.preheader1.i.us.epil.us.1, %.preheader1.i._crit_edge.us.us
  %indvars.iv.next8.i.us.us.1 = add nuw nsw i64 %indvars.iv7.i71.us.us, 2
  %exitcond134.us.1 = icmp eq i64 %indvars.iv.next8.i.us.us.1, %155
  br i1 %exitcond134.us.1, label %cfftz.exit.i42, label %.preheader1.i.preheader.us.us, !noelle.parallelizer.looporder !33

.preheader.i43.us.epil.us.preheader.1:            ; preds = %.preheader.i43._crit_edge.us.us
  %scevgep39.1 = getelementptr [512 x [18 x %struct.dcomplex]], [512 x [18 x %struct.dcomplex]]* %28, i64 0, i64 %indvars.iv.next12.i.us.us, i64 0
  %scevgep3940.1 = bitcast %struct.dcomplex* %scevgep39.1 to i8*
  %scevgep37.1 = getelementptr [256 x [256 x [512 x %struct.dcomplex]]], [256 x [256 x [512 x %struct.dcomplex]]]* @main.u1, i64 0, i64 %indvars.iv13.i79, i64 %indvars.iv.next12.i.us.us, i64 %291
  %scevgep3738.1 = bitcast %struct.dcomplex* %scevgep37.1 to i8*
  call void @llvm.memcpy.p0i8.p0i8.i64(i8* align 16 %scevgep3738.1, i8* align 16 %scevgep3940.1, i64 %181, i1 false)
  br label %.preheader.i43._crit_edge.us.us.1

.preheader.i43._crit_edge.us.us.1:                ; preds = %.preheader.i43.us.epil.us.preheader.1, %.preheader.i43._crit_edge.us.us
  %indvars.iv.next12.i.us.us.1 = add nuw nsw i64 %indvars.iv11.i74.us.us, 2
  %exitcond137.us.1 = icmp eq i64 %indvars.iv.next12.i.us.us.1, %155
  br i1 %exitcond137.us.1, label %.preheader20, label %.preheader.i43.preheader.us.us, !noelle.parallelizer.looporder !34

._crit_edge.i38.._crit_edge.i38_crit_edge.1:      ; preds = %._crit_edge.i38.._crit_edge.i38_crit_edge
  %512 = fmul double %138, %.pre23.i37.pre.1
  %513 = getelementptr inbounds [1966081 x double], [1966081 x double]* @ex, i64 0, i64 %indvars.iv.next.i35.2
  store double %512, double* %513, align 8, !tbaa !8
  %indvars.iv.next.i35.177 = add nuw nsw i64 %indvars.iv.next.i35204, 4
  %.pre23.i37.pre.1.1 = load double, double* getelementptr inbounds ([1966081 x double], [1966081 x double]* @ex, i64 0, i64 1), align 8, !tbaa !8
  %514 = fmul double %512, %.pre23.i37.pre.1.1
  %515 = getelementptr inbounds [1966081 x double], [1966081 x double]* @ex, i64 0, i64 %indvars.iv.next.i35.177
  store double %514, double* %515, align 16, !tbaa !8
  %indvars.iv.next.i35.1.1 = add nuw nsw i64 %indvars.iv.next.i35204, 5
  %516 = fmul double %.pre23.i37.pre.1.1, %514
  %517 = getelementptr inbounds [1966081 x double], [1966081 x double]* @ex, i64 0, i64 %indvars.iv.next.i35.1.1
  store double %516, double* %517, align 8, !tbaa !8
  %indvars.iv.next.i35.2.1 = add nuw nsw i64 %indvars.iv.next.i35204, 6
  br label %._crit_edge.i38.._crit_edge.i38_crit_edge

._crit_edge.i13.._crit_edge.i13_crit_edge.1:      ; preds = %._crit_edge.i13.._crit_edge.i13_crit_edge
  %518 = fmul double %90, %.pre23.i.pre.1
  %519 = getelementptr inbounds [1966081 x double], [1966081 x double]* @ex, i64 0, i64 %indvars.iv.next.i11.2
  store double %518, double* %519, align 8, !tbaa !8
  %indvars.iv.next.i11.179 = add nuw nsw i64 %indvars.iv.next.i11205, 4
  %.pre23.i.pre.1.1 = load double, double* getelementptr inbounds ([1966081 x double], [1966081 x double]* @ex, i64 0, i64 1), align 8, !tbaa !8
  %520 = fmul double %518, %.pre23.i.pre.1.1
  %521 = getelementptr inbounds [1966081 x double], [1966081 x double]* @ex, i64 0, i64 %indvars.iv.next.i11.179
  store double %520, double* %521, align 16, !tbaa !8
  %indvars.iv.next.i11.1.1 = add nuw nsw i64 %indvars.iv.next.i11205, 5
  %522 = fmul double %.pre23.i.pre.1.1, %520
  %523 = getelementptr inbounds [1966081 x double], [1966081 x double]* @ex, i64 0, i64 %indvars.iv.next.i11.1.1
  store double %522, double* %523, align 8, !tbaa !8
  %indvars.iv.next.i11.2.1 = add nuw nsw i64 %indvars.iv.next.i11205, 6
  br label %._crit_edge.i13.._crit_edge.i13_crit_edge
}

; Function Attrs: argmemonly nounwind
declare void @llvm.memset.p0i8.i64(i8* nocapture writeonly, i8, i64, i1 immarg) #1

; Function Attrs: cold nofree nounwind uwtable
define internal fastcc void @setup() unnamed_addr #2 {
.preheader.preheader:
  %puts = tail call i32 @puts(i8* getelementptr inbounds ([75 x i8], [75 x i8]* @str, i64 0, i64 0))
  store i1 true, i1* @niter, align 4
  %0 = tail call i32 (i8*, ...) @printf(i8* getelementptr inbounds ([36 x i8], [36 x i8]* @.str.11, i64 0, i64 0), i32 512, i32 256, i32 256) #10
  %.b = load i1, i1* @niter, align 4
  %1 = select i1 %.b, i32 20, i32 0
  %2 = tail call i32 (i8*, ...) @printf(i8* getelementptr inbounds ([32 x i8], [32 x i8]* @.str.12, i64 0, i64 0), i32 %1) #10
  store i1 true, i1* @dims.0.0, align 16
  store i1 true, i1* @dims.0.1, align 16
  store i1 true, i1* @dims.0.2, align 8
  store i1 true, i1* @dims.1.0, align 16
  store i1 true, i1* @dims.1.1, align 16
  store i1 true, i1* @dims.1.2, align 8
  store i1 true, i1* @dims.2.0, align 8
  store i1 true, i1* @dims.2.1, align 8
  store i1 true, i1* @dims.2.2, align 8
  store i1 true, i1* @xstart.0, align 4
  store i1 true, i1* @xend.0, align 4
  store i1 true, i1* @ystart.0, align 4
  store i1 true, i1* @yend.0, align 4
  store i1 true, i1* @zstart.0, align 4
  store i1 true, i1* @zend.0, align 4
  store i1 true, i1* @xstart.2, align 4
  store i1 true, i1* @ystart.2, align 4
  store i1 true, i1* @zstart.2, align 4
  store i32 16, i32* @fftblock, align 4, !tbaa !2
  store i32 18, i32* @fftblockpad, align 4, !tbaa !2
  ret void
}

; Function Attrs: nounwind uwtable
define internal fastcc void @compute_initial_conditions() unnamed_addr #3 {
  %1 = alloca double, align 8
  %2 = alloca double, align 8
  %3 = alloca double, align 8
  %4 = alloca double, align 8
  %5 = alloca double, align 8
  %6 = bitcast double* %5 to i8*
  call void @llvm.lifetime.start.p0i8(i64 8, i8* nonnull %6) #10
  store double 0x41B2B9B0A1000000, double* %5, align 8, !tbaa !8
  %.b25 = load i1, i1* @zstart.0, align 4
  %7 = zext i1 %.b25 to i32
  %8 = shl nuw nsw i32 %7, 18
  %.b = load i1, i1* @ystart.0, align 4
  %9 = zext i1 %.b to i32
  %10 = shl nuw nsw i32 %9, 10
  %11 = or i32 %8, -263168
  %12 = add nsw i32 %11, %10
  %13 = bitcast double* %3 to i8*
  call void @llvm.lifetime.start.p0i8(i64 8, i8* nonnull %13) #10
  %14 = bitcast double* %4 to i8*
  call void @llvm.lifetime.start.p0i8(i64 8, i8* nonnull %14) #10
  %15 = icmp eq i32 %12, 0
  br i1 %15, label %ipow46.exit, label %16

16:                                               ; preds = %0
  store double 0x41D2309CE5400000, double* %3, align 8, !tbaa !8
  store double 1.000000e+00, double* %4, align 8, !tbaa !8
  %17 = icmp sgt i32 %12, 1
  br i1 %17, label %.lr.ph14, label %._crit_edge15

.lr.ph14:                                         ; preds = %16, %26
  %.pre17 = phi double [ %.pre, %26 ], [ 0x41D2309CE5400000, %16 ]
  %.01.i12 = phi i32 [ %.1.i, %26 ], [ %12, %16 ]
  %18 = and i32 %.01.i12, -2
  %19 = icmp eq i32 %18, %.01.i12
  br i1 %19, label %20, label %23

20:                                               ; preds = %.lr.ph14
  %21 = lshr i32 %.01.i12, 1
  %22 = call double @randlc(double* nonnull %3, double %.pre17) #10
  %.pre.pre = load double, double* %3, align 8, !tbaa !8
  br label %26

23:                                               ; preds = %.lr.ph14
  %24 = call double @randlc(double* nonnull %4, double %.pre17) #10
  %25 = add nsw i32 %.01.i12, -1
  br label %26

26:                                               ; preds = %23, %20
  %.pre = phi double [ %.pre.pre, %20 ], [ %.pre17, %23 ]
  %.1.i = phi i32 [ %21, %20 ], [ %25, %23 ]
  %27 = icmp sgt i32 %.1.i, 1
  br i1 %27, label %.lr.ph14, label %._crit_edge15

._crit_edge15:                                    ; preds = %26, %16
  %28 = phi double [ 0x41D2309CE5400000, %16 ], [ %.pre, %26 ]
  %29 = call double @randlc(double* nonnull %4, double %28) #10
  %30 = load double, double* %4, align 8, !tbaa !8
  br label %ipow46.exit

ipow46.exit:                                      ; preds = %0, %._crit_edge15
  %31 = phi double [ %30, %._crit_edge15 ], [ 1.000000e+00, %0 ]
  call void @llvm.lifetime.end.p0i8(i64 8, i8* nonnull %14) #10
  call void @llvm.lifetime.end.p0i8(i64 8, i8* nonnull %13) #10
  %32 = call double @randlc(double* nonnull %5, double %31)
  %33 = bitcast double* %1 to i8*
  call void @llvm.lifetime.start.p0i8(i64 8, i8* nonnull %33) #10
  %34 = bitcast double* %2 to i8*
  call void @llvm.lifetime.start.p0i8(i64 8, i8* nonnull %34) #10
  store double 0x41D2309CE5400000, double* %1, align 8, !tbaa !8
  store double 1.000000e+00, double* %2, align 8, !tbaa !8
  br label %._crit_edge22

._crit_edge22:                                    ; preds = %43, %ipow46.exit
  %.pre2319 = phi double [ 0x41D2309CE5400000, %ipow46.exit ], [ %.pre23, %43 ]
  %.01.i111 = phi i32 [ 262144, %ipow46.exit ], [ %.1.i2, %43 ]
  %35 = and i32 %.01.i111, -2
  %36 = icmp eq i32 %35, %.01.i111
  br i1 %36, label %37, label %40

37:                                               ; preds = %._crit_edge22
  %38 = lshr i32 %.01.i111, 1
  %39 = call double @randlc(double* nonnull %1, double %.pre2319) #10
  %.pre23.pre = load double, double* %1, align 8, !tbaa !8
  br label %43

40:                                               ; preds = %._crit_edge22
  %41 = call double @randlc(double* nonnull %2, double %.pre2319) #10
  %42 = add nsw i32 %.01.i111, -1
  br label %43

43:                                               ; preds = %40, %37
  %.pre23 = phi double [ %.pre23.pre, %37 ], [ %.pre2319, %40 ]
  %.1.i2 = phi i32 [ %38, %37 ], [ %42, %40 ]
  %44 = icmp sgt i32 %.1.i2, 1
  br i1 %44, label %._crit_edge22, label %ipow46.exit3

ipow46.exit3:                                     ; preds = %43
  %45 = call double @randlc(double* nonnull %2, double %.pre23) #10
  %46 = load double, double* %2, align 8, !tbaa !8
  call void @llvm.lifetime.end.p0i8(i64 8, i8* nonnull %34) #10
  call void @llvm.lifetime.end.p0i8(i64 8, i8* nonnull %33) #10
  %.b27 = load i1, i1* @dims.0.2, align 8
  %47 = select i1 %.b27, i64 256, i64 0
  %.b26 = load i1, i1* @dims.0.1, align 16
  %48 = select i1 %.b26, i32 256, i32 0
  %49 = shl nuw nsw i32 %48, 10
  %50 = zext i32 %49 to i64
  %51 = zext i32 %48 to i64
  %52 = fmul double %46, 0x3E80000000000000
  %53 = fptosi double %52 to i32
  %54 = sitofp i32 %53 to double
  %55 = fmul double %54, 0x4160000000000000
  %56 = fsub double %46, %55
  %brmerge.demorgan = and i1 %.b27, %.b26
  br i1 %brmerge.demorgan, label %.preheader.preheader.preheader, label %._crit_edge10, !noelle.parallelizer.looporder !45

.preheader.preheader.preheader:                   ; preds = %ipow46.exit3
  %.promoted = load double, double* %5, align 8, !tbaa !8
  br label %.preheader.preheader.us2

.preheader.preheader.us2:                         ; preds = %._crit_edge.us14, %.preheader.preheader.preheader
  %indvars.iv89.us3 = phi i64 [ %indvars.iv.next9.us15, %._crit_edge.us14 ], [ 0, %.preheader.preheader.preheader ]
  %57 = phi double [ %126, %._crit_edge.us14 ], [ %.promoted, %.preheader.preheader.preheader ]
  br label %.preheader.us

.preheader.us:                                    ; preds = %.preheader.us, %.preheader.preheader.us2
  %.0.i2.us = phi double [ %57, %.preheader.preheader.us2 ], [ %78, %.preheader.us ]
  %indvars.iv.i1.us = phi i64 [ 1, %.preheader.preheader.us2 ], [ %indvars.iv.next.i.us, %.preheader.us ]
  %58 = fmul double %.0.i2.us, 0x3E80000000000000
  %59 = fptosi double %58 to i32
  %60 = sitofp i32 %59 to double
  %61 = fmul double %60, 0x4160000000000000
  %62 = fsub double %.0.i2.us, %61
  %63 = fmul double %62, 1.450000e+02
  %64 = fmul double %60, 0x41509CE540000000
  %65 = fadd double %64, %63
  %66 = fmul double %65, 0x3E80000000000000
  %67 = fptosi double %66 to i32
  %68 = sitofp i32 %67 to double
  %69 = fmul double %68, 0x4160000000000000
  %70 = fsub double %65, %69
  %71 = fmul double %70, 0x4160000000000000
  %72 = fmul double %62, 0x41509CE540000000
  %73 = fadd double %72, %71
  %74 = fmul double %73, 0x3D10000000000000
  %75 = fptosi double %74 to i32
  %76 = sitofp i32 %75 to double
  %77 = fmul double %76, 0x42D0000000000000
  %78 = fsub double %73, %77
  %79 = fmul double %78, 0x3D10000000000000
  %80 = getelementptr inbounds [524289 x double], [524289 x double]* @compute_initial_conditions.tmp, i64 0, i64 %indvars.iv.i1.us
  store double %79, double* %80, align 8, !tbaa !8
  %indvars.iv.next.i.us = add nuw nsw i64 %indvars.iv.i1.us, 1
  %81 = icmp ult i64 %indvars.iv.i1.us, %50
  br i1 %81, label %.preheader.us, label %.lr.ph8.us4

.lr.ph8.us4:                                      ; preds = %.preheader.us, %vranlc.exit.us12
  %.07.us5 = phi i64 [ %indvars.iv.next5.3.us, %vranlc.exit.us12 ], [ 1, %.preheader.us ]
  %indvars.iv66.us6 = phi i64 [ %indvars.iv.next7.us13, %vranlc.exit.us12 ], [ 0, %.preheader.us ]
  %sext.us7 = shl i64 %.07.us5, 32
  %82 = ashr exact i64 %sext.us7, 32
  br label %83

83:                                               ; preds = %83, %.lr.ph8.us4
  %indvars.iv5.us8 = phi i64 [ 0, %.lr.ph8.us4 ], [ %indvars.iv.next.3.us, %83 ]
  %indvars.iv43.us9 = phi i64 [ %82, %.lr.ph8.us4 ], [ %indvars.iv.next5.3.us, %83 ]
  %84 = getelementptr inbounds [524289 x double], [524289 x double]* @compute_initial_conditions.tmp, i64 0, i64 %indvars.iv43.us9
  %85 = getelementptr inbounds [256 x [256 x [512 x %struct.dcomplex]]], [256 x [256 x [512 x %struct.dcomplex]]]* @main.u1, i64 0, i64 %indvars.iv89.us3, i64 %indvars.iv66.us6, i64 %indvars.iv5.us8
  %indvars.iv.next5.us10 = add nsw i64 %indvars.iv43.us9, 2
  %86 = bitcast double* %84 to <2 x i64>*
  %87 = load <2 x i64>, <2 x i64>* %86, align 8, !tbaa !8
  %88 = bitcast %struct.dcomplex* %85 to <2 x i64>*
  store <2 x i64> %87, <2 x i64>* %88, align 16, !tbaa !8
  %indvars.iv.next.us11 = or i64 %indvars.iv5.us8, 1
  %89 = getelementptr inbounds [524289 x double], [524289 x double]* @compute_initial_conditions.tmp, i64 0, i64 %indvars.iv.next5.us10
  %90 = getelementptr inbounds [256 x [256 x [512 x %struct.dcomplex]]], [256 x [256 x [512 x %struct.dcomplex]]]* @main.u1, i64 0, i64 %indvars.iv89.us3, i64 %indvars.iv66.us6, i64 %indvars.iv.next.us11
  %indvars.iv.next5.1.us = add nsw i64 %indvars.iv43.us9, 4
  %91 = bitcast double* %89 to <2 x i64>*
  %92 = load <2 x i64>, <2 x i64>* %91, align 8, !tbaa !8
  %93 = bitcast %struct.dcomplex* %90 to <2 x i64>*
  store <2 x i64> %92, <2 x i64>* %93, align 16, !tbaa !8
  %indvars.iv.next.1.us = or i64 %indvars.iv5.us8, 2
  %94 = getelementptr inbounds [524289 x double], [524289 x double]* @compute_initial_conditions.tmp, i64 0, i64 %indvars.iv.next5.1.us
  %95 = getelementptr inbounds [256 x [256 x [512 x %struct.dcomplex]]], [256 x [256 x [512 x %struct.dcomplex]]]* @main.u1, i64 0, i64 %indvars.iv89.us3, i64 %indvars.iv66.us6, i64 %indvars.iv.next.1.us
  %indvars.iv.next5.2.us = add nsw i64 %indvars.iv43.us9, 6
  %96 = bitcast double* %94 to <2 x i64>*
  %97 = load <2 x i64>, <2 x i64>* %96, align 8, !tbaa !8
  %98 = bitcast %struct.dcomplex* %95 to <2 x i64>*
  store <2 x i64> %97, <2 x i64>* %98, align 16, !tbaa !8
  %indvars.iv.next.2.us = or i64 %indvars.iv5.us8, 3
  %99 = getelementptr inbounds [524289 x double], [524289 x double]* @compute_initial_conditions.tmp, i64 0, i64 %indvars.iv.next5.2.us
  %100 = getelementptr inbounds [256 x [256 x [512 x %struct.dcomplex]]], [256 x [256 x [512 x %struct.dcomplex]]]* @main.u1, i64 0, i64 %indvars.iv89.us3, i64 %indvars.iv66.us6, i64 %indvars.iv.next.2.us
  %indvars.iv.next5.3.us = add nsw i64 %indvars.iv43.us9, 8
  %101 = bitcast double* %99 to <2 x i64>*
  %102 = load <2 x i64>, <2 x i64>* %101, align 8, !tbaa !8
  %103 = bitcast %struct.dcomplex* %100 to <2 x i64>*
  store <2 x i64> %102, <2 x i64>* %103, align 16, !tbaa !8
  %indvars.iv.next.3.us = add nuw nsw i64 %indvars.iv5.us8, 4
  %exitcond.3.us = icmp eq i64 %indvars.iv.next.3.us, 512
  br i1 %exitcond.3.us, label %vranlc.exit.us12, label %83

vranlc.exit.us12:                                 ; preds = %83
  %indvars.iv.next7.us13 = add nuw nsw i64 %indvars.iv66.us6, 1
  %exitcond19.us = icmp eq i64 %indvars.iv.next7.us13, %51
  br i1 %exitcond19.us, label %vranlc.exit._crit_edge.loopexit.us, label %.lr.ph8.us4

104:                                              ; preds = %vranlc.exit._crit_edge.loopexit.us
  %105 = fmul double %57, 0x3E80000000000000
  %106 = fptosi double %105 to i32
  %107 = sitofp i32 %106 to double
  %108 = fmul double %107, 0x4160000000000000
  %109 = fsub double %57, %108
  %110 = fmul double %109, %54
  %111 = fmul double %56, %107
  %112 = fadd double %111, %110
  %113 = fmul double %112, 0x3E80000000000000
  %114 = fptosi double %113 to i32
  %115 = sitofp i32 %114 to double
  %116 = fmul double %115, 0x4160000000000000
  %117 = fsub double %112, %116
  %118 = fmul double %117, 0x4160000000000000
  %119 = fmul double %56, %109
  %120 = fadd double %119, %118
  %121 = fmul double %120, 0x3D10000000000000
  %122 = fptosi double %121 to i32
  %123 = sitofp i32 %122 to double
  %124 = fmul double %123, 0x42D0000000000000
  %125 = fsub double %120, %124
  br label %._crit_edge.us14

._crit_edge.us14:                                 ; preds = %104, %vranlc.exit._crit_edge.loopexit.us
  %126 = phi double [ %125, %104 ], [ %57, %vranlc.exit._crit_edge.loopexit.us ]
  %indvars.iv.next9.us15 = add nuw nsw i64 %indvars.iv89.us3, 1
  %exitcond20.us = icmp eq i64 %indvars.iv.next9.us15, %47
  br i1 %exitcond20.us, label %._crit_edge10, label %.preheader.preheader.us2, !noelle.parallelizer.looporder !45

vranlc.exit._crit_edge.loopexit.us:               ; preds = %vranlc.exit.us12
  %127 = icmp eq i64 %indvars.iv89.us3, %47
  br i1 %127, label %._crit_edge.us14, label %104

._crit_edge10:                                    ; preds = %._crit_edge.us14, %ipow46.exit3
  call void @llvm.lifetime.end.p0i8(i64 8, i8* nonnull %6) #10
  ret void
}

; Function Attrs: cold nofree nounwind uwtable
define internal fastcc void @fft_init(i32) unnamed_addr #2 {
  %2 = icmp eq i32 %0, 1
  br i1 %2, label %ilog2.exit, label %.preheader.i.preheader

.preheader.i.preheader:                           ; preds = %1
  %3 = icmp sgt i32 %0, 2
  br i1 %3, label %.preheader.i, label %.lr.ph8.preheader

.preheader.i:                                     ; preds = %.preheader.i.preheader, %.preheader.i
  %.01.i11 = phi i32 [ %4, %.preheader.i ], [ 2, %.preheader.i.preheader ]
  %.02.i10 = phi i32 [ %5, %.preheader.i ], [ 1, %.preheader.i.preheader ]
  %4 = shl i32 %.01.i11, 1
  %5 = add nuw nsw i32 %.02.i10, 1
  %6 = icmp slt i32 %4, %0
  br i1 %6, label %.preheader.i, label %.lr.ph8.preheader

ilog2.exit:                                       ; preds = %1
  store <2 x double> zeroinitializer, <2 x double>* bitcast ([512 x %struct.dcomplex]* @u to <2 x double>*), align 16, !tbaa !8
  br label %._crit_edge9

.lr.ph8.preheader:                                ; preds = %.preheader.i, %.preheader.i.preheader
  %.0.i.ph = phi i32 [ 1, %.preheader.i.preheader ], [ %5, %.preheader.i ]
  %7 = sitofp i32 %.0.i.ph to double
  store double %7, double* getelementptr inbounds ([512 x %struct.dcomplex], [512 x %struct.dcomplex]* @u, i64 0, i64 0, i32 0), align 16, !tbaa !42
  store double 0.000000e+00, double* getelementptr inbounds ([512 x %struct.dcomplex], [512 x %struct.dcomplex]* @u, i64 0, i64 0, i32 1), align 8, !tbaa !44
  br label %.lr.ph8

.lr.ph8:                                          ; preds = %.lr.ph8.preheader, %._crit_edge
  %.07 = phi i32 [ %37, %._crit_edge ], [ 1, %.lr.ph8.preheader ]
  %.016 = phi i32 [ %38, %._crit_edge ], [ 1, %.lr.ph8.preheader ]
  %.035 = phi i32 [ %36, %._crit_edge ], [ 1, %.lr.ph8.preheader ]
  %8 = sitofp i32 %.07 to double
  %9 = fdiv double 0x400921FB54442D18, %8
  %10 = sext i32 %.035 to i64
  %wide.trip.count = zext i32 %.07 to i64
  %exitcond2 = icmp eq i32 %.07, 0
  br i1 %exitcond2, label %._crit_edge, label %.lr.ph.preheader

.lr.ph.preheader:                                 ; preds = %.lr.ph8
  %xtraiter = and i64 %wide.trip.count, 1
  %11 = icmp eq i32 %.07, 1
  br i1 %11, label %._crit_edge.loopexit.unr-lcssa, label %.lr.ph.preheader.new

.lr.ph.preheader.new:                             ; preds = %.lr.ph.preheader
  %unroll_iter = sub nsw i64 %wide.trip.count, %xtraiter
  br label %.lr.ph

.lr.ph:                                           ; preds = %.lr.ph, %.lr.ph.preheader.new
  %indvars.iv3 = phi i64 [ 0, %.lr.ph.preheader.new ], [ %indvars.iv.next.1, %.lr.ph ]
  %niter = phi i64 [ %unroll_iter, %.lr.ph.preheader.new ], [ %niter.nsub.1, %.lr.ph ]
  %12 = trunc i64 %indvars.iv3 to i32
  %13 = sitofp i32 %12 to double
  %14 = fmul double %9, %13
  %15 = tail call double @cos(double %14) #10
  %16 = add nsw i64 %indvars.iv3, %10
  %17 = getelementptr inbounds [512 x %struct.dcomplex], [512 x %struct.dcomplex]* @u, i64 0, i64 %16, i32 0
  store double %15, double* %17, align 16, !tbaa !42
  %18 = tail call double @sin(double %14) #10
  %19 = getelementptr inbounds [512 x %struct.dcomplex], [512 x %struct.dcomplex]* @u, i64 0, i64 %16, i32 1
  store double %18, double* %19, align 8, !tbaa !44
  %indvars.iv.next = or i64 %indvars.iv3, 1
  %20 = trunc i64 %indvars.iv.next to i32
  %21 = sitofp i32 %20 to double
  %22 = fmul double %9, %21
  %23 = tail call double @cos(double %22) #10
  %24 = add nsw i64 %indvars.iv.next, %10
  %25 = getelementptr inbounds [512 x %struct.dcomplex], [512 x %struct.dcomplex]* @u, i64 0, i64 %24, i32 0
  store double %23, double* %25, align 16, !tbaa !42
  %26 = tail call double @sin(double %22) #10
  %27 = getelementptr inbounds [512 x %struct.dcomplex], [512 x %struct.dcomplex]* @u, i64 0, i64 %24, i32 1
  store double %26, double* %27, align 8, !tbaa !44
  %indvars.iv.next.1 = add nuw nsw i64 %indvars.iv3, 2
  %niter.nsub.1 = add i64 %niter, -2
  %niter.ncmp.1 = icmp eq i64 %niter.nsub.1, 0
  br i1 %niter.ncmp.1, label %._crit_edge.loopexit.unr-lcssa, label %.lr.ph

._crit_edge.loopexit.unr-lcssa:                   ; preds = %.lr.ph, %.lr.ph.preheader
  %indvars.iv3.unr = phi i64 [ 0, %.lr.ph.preheader ], [ %indvars.iv.next.1, %.lr.ph ]
  %lcmp.mod = icmp eq i64 %xtraiter, 0
  br i1 %lcmp.mod, label %._crit_edge, label %.lr.ph.epil

.lr.ph.epil:                                      ; preds = %._crit_edge.loopexit.unr-lcssa
  %28 = trunc i64 %indvars.iv3.unr to i32
  %29 = sitofp i32 %28 to double
  %30 = fmul double %9, %29
  %31 = tail call double @cos(double %30) #10
  %32 = add nsw i64 %indvars.iv3.unr, %10
  %33 = getelementptr inbounds [512 x %struct.dcomplex], [512 x %struct.dcomplex]* @u, i64 0, i64 %32, i32 0
  store double %31, double* %33, align 16, !tbaa !42
  %34 = tail call double @sin(double %30) #10
  %35 = getelementptr inbounds [512 x %struct.dcomplex], [512 x %struct.dcomplex]* @u, i64 0, i64 %32, i32 1
  store double %34, double* %35, align 8, !tbaa !44
  br label %._crit_edge

._crit_edge:                                      ; preds = %.lr.ph.epil, %._crit_edge.loopexit.unr-lcssa, %.lr.ph8
  %36 = add nuw nsw i32 %.035, %.07
  %37 = shl nsw i32 %.07, 1
  %38 = add nuw i32 %.016, 1
  %exitcond1 = icmp eq i32 %.016, %.0.i.ph
  br i1 %exitcond1, label %._crit_edge9, label %.lr.ph8

._crit_edge9:                                     ; preds = %._crit_edge, %ilog2.exit
  ret void
}

; Function Attrs: cold nounwind uwtable
define internal fastcc void @fft() unnamed_addr #4 {
.preheader.i1.preheader:
  %0 = alloca [512 x [18 x %struct.dcomplex]], align 16
  %1 = alloca [512 x [18 x %struct.dcomplex]], align 16
  %noelle.loop_environment = alloca [80 x i64], align 8
  %2 = bitcast [80 x i64]* %noelle.loop_environment to i8*
  %3 = getelementptr inbounds [80 x i64], [80 x i64]* %noelle.loop_environment, i64 0, i64 8
  %4 = bitcast i64* %3 to [512 x [18 x %struct.dcomplex]]**
  %5 = getelementptr inbounds [80 x i64], [80 x i64]* %noelle.loop_environment, i64 0, i64 24
  %6 = getelementptr inbounds [80 x i64], [80 x i64]* %noelle.loop_environment, i64 0, i64 40
  %7 = getelementptr inbounds [80 x i64], [80 x i64]* %noelle.loop_environment, i64 0, i64 56
  %8 = getelementptr inbounds [80 x i64], [80 x i64]* %noelle.loop_environment, i64 0, i64 64
  %9 = getelementptr inbounds [80 x i64], [80 x i64]* %noelle.loop_environment, i64 0, i64 72
  %10 = alloca [512 x [18 x %struct.dcomplex]], align 16
  %11 = alloca [512 x [18 x %struct.dcomplex]], align 16
  %12 = alloca [512 x [18 x %struct.dcomplex]], align 16
  %13 = alloca [512 x [18 x %struct.dcomplex]], align 16
  %.b = load i1, i1* @dims.0.0, align 16
  %14 = select i1 %.b, i32 512, i32 0
  br i1 %.b, label %.preheader.i1, label %ilog2.exit

.preheader.i1:                                    ; preds = %.preheader.i1.preheader, %.preheader.i1
  %.01.i139 = phi i32 [ %15, %.preheader.i1 ], [ 2, %.preheader.i1.preheader ]
  %.02.i138 = phi i32 [ %16, %.preheader.i1 ], [ 1, %.preheader.i1.preheader ]
  %15 = shl i32 %.01.i139, 1
  %16 = add nuw nsw i32 %.02.i138, 1
  %17 = icmp slt i32 %15, %14
  br i1 %17, label %.preheader.i1, label %ilog2.exit

ilog2.exit:                                       ; preds = %.preheader.i1, %.preheader.i1.preheader
  %18 = phi i32 [ 1, %.preheader.i1.preheader ], [ %16, %.preheader.i1 ]
  %.b229 = load i1, i1* @dims.0.1, align 16
  %19 = select i1 %.b229, i32 256, i32 0
  br i1 %.b229, label %.preheader.i1.1, label %ilog2.exit.1

.preheader6.preheader.lr.ph:                      ; preds = %ilog2.exit.2
  %20 = srem i32 %18, 2
  %21 = icmp ne i32 %20, 1
  %22 = icmp slt i32 %944, 0
  %23 = icmp sgt i32 %.pre.i, 0
  %24 = getelementptr inbounds [512 x [18 x %struct.dcomplex]], [512 x [18 x %struct.dcomplex]]* %13, i64 0, i64 0, i64 0, i32 0
  %not..b = xor i1 %.b, true
  %brmerge = or i1 %21, %not..b
  %25 = add nsw i64 %946, -1
  %brmerge200.demorgan = and i1 %.b, %23
  %.not202 = xor i1 %23, true
  %xtraiter305 = and i64 %946, 3
  %26 = icmp ult i64 %25, 3
  %unroll_iter308 = sub nsw i64 %946, %xtraiter305
  %lcmp.mod307 = icmp eq i64 %xtraiter305, 0
  %27 = shl nuw nsw i64 %xtraiter305, 4
  br label %.preheader6.preheader

.preheader6.preheader:                            ; preds = %.preheader6._crit_edge, %.preheader6.preheader.lr.ph
  %indvars.iv12.i136 = phi i64 [ 0, %.preheader6.preheader.lr.ph ], [ %indvars.iv.next13.i, %.preheader6._crit_edge ]
  br i1 %22, label %.preheader6._crit_edge, label %.preheader.i.preheader, !noelle.parallelizer.looporder !25

.preheader.i.preheader:                           ; preds = %.preheader6.preheader, %.preheader6
  %indvars.iv19133 = phi i64 [ %indvars.iv.next20, %.preheader6 ], [ 0, %.preheader6.preheader ]
  br i1 %brmerge200.demorgan, label %.lr.ph98.split.us, label %.preheader.i._crit_edge

.lr.ph98.split.us:                                ; preds = %.preheader.i.preheader, %._crit_edge95.us
  %indvars.iv6.i96.us = phi i64 [ %indvars.iv.next7.i.us, %._crit_edge95.us ], [ 0, %.preheader.i.preheader ]
  %28 = add i64 %indvars.iv6.i96.us, %indvars.iv19133
  %sext21.us = shl i64 %28, 32
  %29 = ashr exact i64 %sext21.us, 32
  br label %30

30:                                               ; preds = %30, %.lr.ph98.split.us
  %indvars.iv.i92.us = phi i64 [ 0, %.lr.ph98.split.us ], [ %indvars.iv.next.i.us.3, %30 ]
  %31 = getelementptr inbounds [256 x [256 x [512 x %struct.dcomplex]]], [256 x [256 x [512 x %struct.dcomplex]]]* @main.u1, i64 0, i64 %indvars.iv12.i136, i64 %29, i64 %indvars.iv.i92.us
  %32 = getelementptr inbounds [512 x [18 x %struct.dcomplex]], [512 x [18 x %struct.dcomplex]]* %12, i64 0, i64 %indvars.iv.i92.us, i64 %indvars.iv6.i96.us
  %33 = bitcast %struct.dcomplex* %31 to <2 x i64>*
  %34 = load <2 x i64>, <2 x i64>* %33, align 16, !tbaa !8
  %35 = bitcast %struct.dcomplex* %32 to <2 x i64>*
  store <2 x i64> %34, <2 x i64>* %35, align 16, !tbaa !8
  %indvars.iv.next.i.us = or i64 %indvars.iv.i92.us, 1
  %36 = getelementptr inbounds [256 x [256 x [512 x %struct.dcomplex]]], [256 x [256 x [512 x %struct.dcomplex]]]* @main.u1, i64 0, i64 %indvars.iv12.i136, i64 %29, i64 %indvars.iv.next.i.us
  %37 = getelementptr inbounds [512 x [18 x %struct.dcomplex]], [512 x [18 x %struct.dcomplex]]* %12, i64 0, i64 %indvars.iv.next.i.us, i64 %indvars.iv6.i96.us
  %38 = bitcast %struct.dcomplex* %36 to <2 x i64>*
  %39 = load <2 x i64>, <2 x i64>* %38, align 16, !tbaa !8
  %40 = bitcast %struct.dcomplex* %37 to <2 x i64>*
  store <2 x i64> %39, <2 x i64>* %40, align 16, !tbaa !8
  %indvars.iv.next.i.us.1 = or i64 %indvars.iv.i92.us, 2
  %41 = getelementptr inbounds [256 x [256 x [512 x %struct.dcomplex]]], [256 x [256 x [512 x %struct.dcomplex]]]* @main.u1, i64 0, i64 %indvars.iv12.i136, i64 %29, i64 %indvars.iv.next.i.us.1
  %42 = getelementptr inbounds [512 x [18 x %struct.dcomplex]], [512 x [18 x %struct.dcomplex]]* %12, i64 0, i64 %indvars.iv.next.i.us.1, i64 %indvars.iv6.i96.us
  %43 = bitcast %struct.dcomplex* %41 to <2 x i64>*
  %44 = load <2 x i64>, <2 x i64>* %43, align 16, !tbaa !8
  %45 = bitcast %struct.dcomplex* %42 to <2 x i64>*
  store <2 x i64> %44, <2 x i64>* %45, align 16, !tbaa !8
  %indvars.iv.next.i.us.2 = or i64 %indvars.iv.i92.us, 3
  %46 = getelementptr inbounds [256 x [256 x [512 x %struct.dcomplex]]], [256 x [256 x [512 x %struct.dcomplex]]]* @main.u1, i64 0, i64 %indvars.iv12.i136, i64 %29, i64 %indvars.iv.next.i.us.2
  %47 = getelementptr inbounds [512 x [18 x %struct.dcomplex]], [512 x [18 x %struct.dcomplex]]* %12, i64 0, i64 %indvars.iv.next.i.us.2, i64 %indvars.iv6.i96.us
  %48 = bitcast %struct.dcomplex* %46 to <2 x i64>*
  %49 = load <2 x i64>, <2 x i64>* %48, align 16, !tbaa !8
  %50 = bitcast %struct.dcomplex* %47 to <2 x i64>*
  store <2 x i64> %49, <2 x i64>* %50, align 16, !tbaa !8
  %indvars.iv.next.i.us.3 = add nuw nsw i64 %indvars.iv.i92.us, 4
  %exitcond180.3 = icmp eq i64 %indvars.iv.next.i.us.3, %945
  br i1 %exitcond180.3, label %._crit_edge95.us, label %30

._crit_edge95.us:                                 ; preds = %30
  %indvars.iv.next7.i.us = add nuw nsw i64 %indvars.iv6.i96.us, 1
  %exitcond181 = icmp eq i64 %indvars.iv.next7.i.us, %946
  br i1 %exitcond181, label %.preheader.i._crit_edge, label %.lr.ph98.split.us

.preheader.i._crit_edge:                          ; preds = %._crit_edge95.us, %.preheader.i.preheader
  br i1 %949, label %LeafBlock7._crit_edge.._crit_edge_crit_edge.i.i, label %.lr.ph121

LeafBlock7._crit_edge.._crit_edge_crit_edge.i.i:  ; preds = %.preheader.i._crit_edge
  %51 = tail call i32 (i8*, ...) @printf(i8* getelementptr inbounds ([99 x i8], [99 x i8]* @.str.13, i64 0, i64 0), i32 1, i32 %18, i32 %948) #10
  tail call void @exit(i32 1) #30
  unreachable

.lr.ph121:                                        ; preds = %.preheader.i._crit_edge, %fftz2.exit
  %.0.i.i120 = phi i32 [ %158, %fftz2.exit ], [ 1, %.preheader.i._crit_edge ]
  %52 = icmp eq i32 %.0.i.i120, 1
  %53 = add nsw i32 %.0.i.i120, -2
  %54 = shl i32 2, %53
  %.02.i.i.i = select i1 %52, i32 1, i32 %54
  %55 = sub nsw i32 %18, %.0.i.i120
  %56 = icmp eq i32 %55, 0
  %57 = add nsw i32 %55, -1
  %58 = shl i32 2, %57
  %.03.i.i.i = select i1 %56, i32 1, i32 %58
  %59 = shl nsw i32 %.02.i.i.i, 1
  %60 = sext i32 %.02.i.i.i to i64
  %61 = sext i32 %.03.i.i.i to i64
  %62 = sext i32 %59 to i64
  %63 = load i32, i32* getelementptr inbounds (%class.NoelleRuntime, %class.NoelleRuntime* @_ZL7runtime, i64 0, i32 6), align 8, !tbaa !12
  %64 = icmp sgt i32 %63, 1
  br i1 %64, label %606, label %.split.us.i.i.i.preheader

.split.us.i.i.i.preheader:                        ; preds = %.lr.ph121
  %65 = icmp slt i32 %.03.i.i.i, 1
  %66 = icmp slt i32 %.02.i.i.i, 1
  %brmerge203 = or i1 %66, %.not202
  %or.cond = or i1 %65, %brmerge203
  br i1 %or.cond, label %.us-lcssa.us.loopexit.i.i.i, label %.lr.ph108.split, !noelle.parallelizer.looporder !26

.lr.ph108.split:                                  ; preds = %.split.us.i.i.i.preheader, %.split.us.i.i.i
  %indvars.iv10.i.i.i107 = phi i64 [ %indvars.iv.next11.i.i.i, %.split.us.i.i.i ], [ 0, %.split.us.i.i.i.preheader ]
  %67 = mul nsw i64 %indvars.iv10.i.i.i107, %60
  %68 = mul nsw i64 %indvars.iv10.i.i.i107, %62
  %69 = add nsw i64 %indvars.iv10.i.i.i107, %61
  %70 = getelementptr inbounds [512 x %struct.dcomplex], [512 x %struct.dcomplex]* @u, i64 0, i64 %69, i32 0
  %71 = bitcast double* %70 to <2 x double>*
  %72 = load <2 x double>, <2 x double>* %71, align 16, !tbaa !8
  %73 = shufflevector <2 x double> %72, <2 x double> undef, <2 x i32> <i32 1, i32 0>
  br label %.lr.ph105.split.us

.lr.ph105.split.us:                               ; preds = %.lr.ph108.split, %._crit_edge102.us
  %indvars.iv8.i.i.i103.us = phi i64 [ %indvars.iv.next9.i.i.i.us, %._crit_edge102.us ], [ 0, %.lr.ph108.split ]
  %74 = add nsw i64 %indvars.iv8.i.i.i103.us, %67
  %75 = add nsw i64 %74, %951
  %76 = add nsw i64 %indvars.iv8.i.i.i103.us, %68
  %77 = add nsw i64 %76, %60
  br label %78

78:                                               ; preds = %78, %.lr.ph105.split.us
  %indvars.iv.i.i.i99.us = phi i64 [ 0, %.lr.ph105.split.us ], [ %indvars.iv.next.i.i.i.us, %78 ]
  %79 = getelementptr inbounds [512 x [18 x %struct.dcomplex]], [512 x [18 x %struct.dcomplex]]* %12, i64 0, i64 %74, i64 %indvars.iv.i.i.i99.us, i32 0
  %80 = bitcast double* %79 to <2 x double>*
  %81 = load <2 x double>, <2 x double>* %80, align 16, !tbaa !8
  %82 = getelementptr inbounds [512 x [18 x %struct.dcomplex]], [512 x [18 x %struct.dcomplex]]* %12, i64 0, i64 %75, i64 %indvars.iv.i.i.i99.us, i32 0
  %83 = bitcast double* %82 to <2 x double>*
  %84 = load <2 x double>, <2 x double>* %83, align 16, !tbaa !8
  %85 = getelementptr inbounds [512 x [18 x %struct.dcomplex]], [512 x [18 x %struct.dcomplex]]* %13, i64 0, i64 %76, i64 %indvars.iv.i.i.i99.us, i32 0
  %86 = fadd <2 x double> %81, %84
  %87 = bitcast double* %85 to <2 x double>*
  store <2 x double> %86, <2 x double>* %87, align 16, !tbaa !8
  %88 = extractelement <2 x double> %81, i32 0
  %89 = extractelement <2 x double> %84, i32 0
  %90 = fsub double %88, %89
  %91 = extractelement <2 x double> %81, i32 1
  %92 = extractelement <2 x double> %84, i32 1
  %93 = fsub double %91, %92
  %94 = getelementptr inbounds [512 x [18 x %struct.dcomplex]], [512 x [18 x %struct.dcomplex]]* %13, i64 0, i64 %77, i64 %indvars.iv.i.i.i99.us, i32 0
  %95 = insertelement <2 x double> undef, double %93, i32 0
  %96 = shufflevector <2 x double> %95, <2 x double> undef, <2 x i32> zeroinitializer
  %97 = fmul <2 x double> %73, %96
  %98 = insertelement <2 x double> undef, double %90, i32 0
  %99 = shufflevector <2 x double> %98, <2 x double> undef, <2 x i32> zeroinitializer
  %100 = fmul <2 x double> %72, %99
  %101 = fsub <2 x double> %100, %97
  %102 = fadd <2 x double> %100, %97
  %103 = shufflevector <2 x double> %101, <2 x double> %102, <2 x i32> <i32 0, i32 3>
  %104 = bitcast double* %94 to <2 x double>*
  store <2 x double> %103, <2 x double>* %104, align 16, !tbaa !8
  %indvars.iv.next.i.i.i.us = add nuw nsw i64 %indvars.iv.i.i.i99.us, 1
  %exitcond183 = icmp eq i64 %indvars.iv.next.i.i.i.us, %946
  br i1 %exitcond183, label %._crit_edge102.us, label %78

._crit_edge102.us:                                ; preds = %78
  %indvars.iv.next9.i.i.i.us = add nuw nsw i64 %indvars.iv8.i.i.i103.us, 1
  %exitcond184 = icmp eq i64 %indvars.iv.next9.i.i.i.us, %60
  br i1 %exitcond184, label %.split.us.i.i.i, label %.lr.ph105.split.us

.split.us.i.i.i:                                  ; preds = %._crit_edge102.us
  %indvars.iv.next11.i.i.i = add nuw nsw i64 %indvars.iv10.i.i.i107, 1
  %exitcond185 = icmp eq i64 %indvars.iv.next11.i.i.i, %61
  br i1 %exitcond185, label %.us-lcssa.us.loopexit.i.i.i, label %.lr.ph108.split, !noelle.parallelizer.looporder !26

.us-lcssa.us.loopexit.i.i.i:                      ; preds = %.split.us.i.i.i, %.split.us.i.i.i.preheader, %noelle_task_0_update_original_heap.exit26
  %105 = icmp eq i32 %18, %.0.i.i120
  br i1 %105, label %.loopexit.i.i, label %106

106:                                              ; preds = %.us-lcssa.us.loopexit.i.i.i
  %107 = add nsw i32 %.0.i.i120, -1
  %108 = shl i32 2, %107
  %109 = xor i32 %.0.i.i120, -1
  %110 = add i32 %18, %109
  %111 = icmp eq i32 %110, 0
  %112 = add nsw i32 %110, -1
  %113 = shl i32 2, %112
  %.03.i = select i1 %111, i32 1, i32 %113
  %114 = shl nsw i32 %108, 1
  %115 = sext i32 %108 to i64
  %116 = sext i32 %.03.i to i64
  %117 = sext i32 %114 to i64
  %118 = icmp slt i32 %.03.i, 1
  %119 = icmp slt i32 %108, 1
  %brmerge206 = or i1 %119, %.not202
  %or.cond173 = or i1 %118, %brmerge206
  br i1 %or.cond173, label %fftz2.exit, label %.lr.ph119.split

.lr.ph119.split:                                  ; preds = %106, %.split.us.i
  %indvars.iv10.i1117 = phi i64 [ %indvars.iv.next11.i3, %.split.us.i ], [ 0, %106 ]
  %120 = mul nsw i64 %indvars.iv10.i1117, %115
  %121 = mul nsw i64 %indvars.iv10.i1117, %117
  %122 = add nsw i64 %indvars.iv10.i1117, %116
  %123 = getelementptr inbounds [512 x %struct.dcomplex], [512 x %struct.dcomplex]* @u, i64 0, i64 %122, i32 0
  %124 = bitcast double* %123 to <2 x double>*
  %125 = load <2 x double>, <2 x double>* %124, align 16, !tbaa !8
  %126 = shufflevector <2 x double> %125, <2 x double> undef, <2 x i32> <i32 1, i32 0>
  br label %.lr.ph115.split.us

.lr.ph115.split.us:                               ; preds = %.lr.ph119.split, %._crit_edge112.us
  %indvars.iv8.i2113.us = phi i64 [ %indvars.iv.next9.i5.us, %._crit_edge112.us ], [ 0, %.lr.ph119.split ]
  %127 = add nsw i64 %indvars.iv8.i2113.us, %120
  %128 = add nsw i64 %127, %951
  %129 = add nsw i64 %indvars.iv8.i2113.us, %121
  %130 = add nsw i64 %129, %115
  br label %131

131:                                              ; preds = %131, %.lr.ph115.split.us
  %indvars.iv.i4109.us = phi i64 [ 0, %.lr.ph115.split.us ], [ %indvars.iv.next.i6.us, %131 ]
  %132 = getelementptr inbounds [512 x [18 x %struct.dcomplex]], [512 x [18 x %struct.dcomplex]]* %13, i64 0, i64 %127, i64 %indvars.iv.i4109.us, i32 0
  %133 = bitcast double* %132 to <2 x double>*
  %134 = load <2 x double>, <2 x double>* %133, align 16, !tbaa !8
  %135 = getelementptr inbounds [512 x [18 x %struct.dcomplex]], [512 x [18 x %struct.dcomplex]]* %13, i64 0, i64 %128, i64 %indvars.iv.i4109.us, i32 0
  %136 = bitcast double* %135 to <2 x double>*
  %137 = load <2 x double>, <2 x double>* %136, align 16, !tbaa !8
  %138 = getelementptr inbounds [512 x [18 x %struct.dcomplex]], [512 x [18 x %struct.dcomplex]]* %12, i64 0, i64 %129, i64 %indvars.iv.i4109.us, i32 0
  %139 = fadd <2 x double> %134, %137
  %140 = bitcast double* %138 to <2 x double>*
  store <2 x double> %139, <2 x double>* %140, align 16, !tbaa !8
  %141 = extractelement <2 x double> %134, i32 0
  %142 = extractelement <2 x double> %137, i32 0
  %143 = fsub double %141, %142
  %144 = extractelement <2 x double> %134, i32 1
  %145 = extractelement <2 x double> %137, i32 1
  %146 = fsub double %144, %145
  %147 = getelementptr inbounds [512 x [18 x %struct.dcomplex]], [512 x [18 x %struct.dcomplex]]* %12, i64 0, i64 %130, i64 %indvars.iv.i4109.us, i32 0
  %148 = insertelement <2 x double> undef, double %146, i32 0
  %149 = shufflevector <2 x double> %148, <2 x double> undef, <2 x i32> zeroinitializer
  %150 = fmul <2 x double> %126, %149
  %151 = insertelement <2 x double> undef, double %143, i32 0
  %152 = shufflevector <2 x double> %151, <2 x double> undef, <2 x i32> zeroinitializer
  %153 = fmul <2 x double> %125, %152
  %154 = fsub <2 x double> %153, %150
  %155 = fadd <2 x double> %153, %150
  %156 = shufflevector <2 x double> %154, <2 x double> %155, <2 x i32> <i32 0, i32 3>
  %157 = bitcast double* %147 to <2 x double>*
  store <2 x double> %156, <2 x double>* %157, align 16, !tbaa !8
  %indvars.iv.next.i6.us = add nuw nsw i64 %indvars.iv.i4109.us, 1
  %exitcond187 = icmp eq i64 %indvars.iv.next.i6.us, %946
  br i1 %exitcond187, label %._crit_edge112.us, label %131

._crit_edge112.us:                                ; preds = %131
  %indvars.iv.next9.i5.us = add nuw nsw i64 %indvars.iv8.i2113.us, 1
  %exitcond188 = icmp eq i64 %indvars.iv.next9.i5.us, %115
  br i1 %exitcond188, label %.split.us.i, label %.lr.ph115.split.us

.split.us.i:                                      ; preds = %._crit_edge112.us
  %indvars.iv.next11.i3 = add nuw nsw i64 %indvars.iv10.i1117, 1
  %exitcond189 = icmp eq i64 %indvars.iv.next11.i3, %116
  br i1 %exitcond189, label %fftz2.exit, label %.lr.ph119.split

fftz2.exit:                                       ; preds = %.split.us.i, %106
  %158 = add nuw nsw i32 %.0.i.i120, 2
  %159 = icmp slt i32 %18, %158
  br i1 %159, label %.loopexit.i.i, label %.lr.ph121

.loopexit.i.i:                                    ; preds = %fftz2.exit, %.us-lcssa.us.loopexit.i.i.i
  br i1 %brmerge, label %cfftz.exit.i, label %.preheader1.i.i.preheader.lr.ph

.preheader1.i.i.preheader.lr.ph:                  ; preds = %.loopexit.i.i
  br i1 %23, label %.preheader1.i.i.preheader.us.preheader, label %.preheader6

.preheader1.i.i.preheader.us.preheader:           ; preds = %.preheader1.i.i.preheader.lr.ph
  br i1 %26, label %.preheader1.i.i.preheader.us.us, label %.preheader1.i.i.preheader.us

.preheader1.i.i.preheader.us.us:                  ; preds = %.preheader1.i.i.preheader.us.preheader, %.preheader1.i.i._crit_edge.us.us.1
  %indvars.iv5.i.i124.us.us = phi i64 [ %indvars.iv.next6.i.i.us.us.1, %.preheader1.i.i._crit_edge.us.us.1 ], [ 0, %.preheader1.i.i.preheader.us.preheader ]
  br i1 %lcmp.mod307, label %.preheader1.i.i._crit_edge.us.us, label %.preheader1.i.i.us.epil.us.preheader

.preheader1.i.i.us.epil.us.preheader:             ; preds = %.preheader1.i.i.preheader.us.us
  %scevgep154 = getelementptr [512 x [18 x %struct.dcomplex]], [512 x [18 x %struct.dcomplex]]* %13, i64 0, i64 %indvars.iv5.i.i124.us.us, i64 0
  %scevgep154155 = bitcast %struct.dcomplex* %scevgep154 to i8*
  %scevgep152 = getelementptr [512 x [18 x %struct.dcomplex]], [512 x [18 x %struct.dcomplex]]* %12, i64 0, i64 %indvars.iv5.i.i124.us.us, i64 0
  %scevgep152153 = bitcast %struct.dcomplex* %scevgep152 to i8*
  call void @llvm.memcpy.p0i8.p0i8.i64(i8* align 16 %scevgep152153, i8* align 16 %scevgep154155, i64 %27, i1 false)
  br label %.preheader1.i.i._crit_edge.us.us

.preheader1.i.i._crit_edge.us.us:                 ; preds = %.preheader1.i.i.us.epil.us.preheader, %.preheader1.i.i.preheader.us.us
  %indvars.iv.next6.i.i.us.us = or i64 %indvars.iv5.i.i124.us.us, 1
  br i1 %lcmp.mod307, label %.preheader1.i.i._crit_edge.us.us.1, label %.preheader1.i.i.us.epil.us.preheader.1

.preheader1.i.i.preheader.us:                     ; preds = %.preheader1.i.i.preheader.us.preheader, %.preheader1.i.i._crit_edge.us
  %indvars.iv5.i.i124.us = phi i64 [ %indvars.iv.next6.i.i.us, %.preheader1.i.i._crit_edge.us ], [ 0, %.preheader1.i.i.preheader.us.preheader ]
  br label %.preheader1.i.i.us

.preheader1.i.i.us:                               ; preds = %.preheader1.i.i.preheader.us, %.preheader1.i.i.us
  %indvars.iv.i.i122.us = phi i64 [ %indvars.iv.next.i.i.us.3, %.preheader1.i.i.us ], [ 0, %.preheader1.i.i.preheader.us ]
  %niter309 = phi i64 [ %niter309.nsub.3, %.preheader1.i.i.us ], [ %unroll_iter308, %.preheader1.i.i.preheader.us ]
  %160 = getelementptr inbounds [512 x [18 x %struct.dcomplex]], [512 x [18 x %struct.dcomplex]]* %13, i64 0, i64 %indvars.iv5.i.i124.us, i64 %indvars.iv.i.i122.us
  %161 = getelementptr inbounds [512 x [18 x %struct.dcomplex]], [512 x [18 x %struct.dcomplex]]* %12, i64 0, i64 %indvars.iv5.i.i124.us, i64 %indvars.iv.i.i122.us
  %162 = bitcast %struct.dcomplex* %160 to <2 x i64>*
  %163 = load <2 x i64>, <2 x i64>* %162, align 16, !tbaa !8
  %164 = bitcast %struct.dcomplex* %161 to <2 x i64>*
  store <2 x i64> %163, <2 x i64>* %164, align 16, !tbaa !8
  %indvars.iv.next.i.i.us = or i64 %indvars.iv.i.i122.us, 1
  %165 = getelementptr inbounds [512 x [18 x %struct.dcomplex]], [512 x [18 x %struct.dcomplex]]* %13, i64 0, i64 %indvars.iv5.i.i124.us, i64 %indvars.iv.next.i.i.us
  %166 = getelementptr inbounds [512 x [18 x %struct.dcomplex]], [512 x [18 x %struct.dcomplex]]* %12, i64 0, i64 %indvars.iv5.i.i124.us, i64 %indvars.iv.next.i.i.us
  %167 = bitcast %struct.dcomplex* %165 to <2 x i64>*
  %168 = load <2 x i64>, <2 x i64>* %167, align 16, !tbaa !8
  %169 = bitcast %struct.dcomplex* %166 to <2 x i64>*
  store <2 x i64> %168, <2 x i64>* %169, align 16, !tbaa !8
  %indvars.iv.next.i.i.us.1 = or i64 %indvars.iv.i.i122.us, 2
  %170 = getelementptr inbounds [512 x [18 x %struct.dcomplex]], [512 x [18 x %struct.dcomplex]]* %13, i64 0, i64 %indvars.iv5.i.i124.us, i64 %indvars.iv.next.i.i.us.1
  %171 = getelementptr inbounds [512 x [18 x %struct.dcomplex]], [512 x [18 x %struct.dcomplex]]* %12, i64 0, i64 %indvars.iv5.i.i124.us, i64 %indvars.iv.next.i.i.us.1
  %172 = bitcast %struct.dcomplex* %170 to <2 x i64>*
  %173 = load <2 x i64>, <2 x i64>* %172, align 16, !tbaa !8
  %174 = bitcast %struct.dcomplex* %171 to <2 x i64>*
  store <2 x i64> %173, <2 x i64>* %174, align 16, !tbaa !8
  %indvars.iv.next.i.i.us.2 = or i64 %indvars.iv.i.i122.us, 3
  %175 = getelementptr inbounds [512 x [18 x %struct.dcomplex]], [512 x [18 x %struct.dcomplex]]* %13, i64 0, i64 %indvars.iv5.i.i124.us, i64 %indvars.iv.next.i.i.us.2
  %176 = getelementptr inbounds [512 x [18 x %struct.dcomplex]], [512 x [18 x %struct.dcomplex]]* %12, i64 0, i64 %indvars.iv5.i.i124.us, i64 %indvars.iv.next.i.i.us.2
  %177 = bitcast %struct.dcomplex* %175 to <2 x i64>*
  %178 = load <2 x i64>, <2 x i64>* %177, align 16, !tbaa !8
  %179 = bitcast %struct.dcomplex* %176 to <2 x i64>*
  store <2 x i64> %178, <2 x i64>* %179, align 16, !tbaa !8
  %indvars.iv.next.i.i.us.3 = add nuw nsw i64 %indvars.iv.i.i122.us, 4
  %niter309.nsub.3 = add i64 %niter309, -4
  %niter309.ncmp.3 = icmp eq i64 %niter309.nsub.3, 0
  br i1 %niter309.ncmp.3, label %.preheader1.i.i._crit_edge.us.unr-lcssa, label %.preheader1.i.i.us

.preheader1.i.i._crit_edge.us.unr-lcssa:          ; preds = %.preheader1.i.i.us
  br i1 %lcmp.mod307, label %.preheader1.i.i._crit_edge.us, label %.preheader1.i.i.us.epil.preheader

.preheader1.i.i.us.epil.preheader:                ; preds = %.preheader1.i.i._crit_edge.us.unr-lcssa
  %scevgep147 = getelementptr [512 x [18 x %struct.dcomplex]], [512 x [18 x %struct.dcomplex]]* %12, i64 0, i64 %indvars.iv5.i.i124.us, i64 %indvars.iv.next.i.i.us.3
  %scevgep147148 = bitcast %struct.dcomplex* %scevgep147 to i8*
  %scevgep150 = getelementptr [512 x [18 x %struct.dcomplex]], [512 x [18 x %struct.dcomplex]]* %13, i64 0, i64 %indvars.iv5.i.i124.us, i64 %indvars.iv.next.i.i.us.3
  %scevgep150151 = bitcast %struct.dcomplex* %scevgep150 to i8*
  call void @llvm.memcpy.p0i8.p0i8.i64(i8* align 16 %scevgep147148, i8* align 16 %scevgep150151, i64 %27, i1 false)
  br label %.preheader1.i.i._crit_edge.us

.preheader1.i.i._crit_edge.us:                    ; preds = %.preheader1.i.i.us.epil.preheader, %.preheader1.i.i._crit_edge.us.unr-lcssa
  %indvars.iv.next6.i.i.us = add nuw nsw i64 %indvars.iv5.i.i124.us, 1
  %exitcond192 = icmp eq i64 %indvars.iv.next6.i.i.us, %945
  br i1 %exitcond192, label %cfftz.exit.i, label %.preheader1.i.i.preheader.us

cfftz.exit.i:                                     ; preds = %.preheader1.i.i._crit_edge.us, %.preheader1.i.i._crit_edge.us.us.1, %.loopexit.i.i
  br i1 %brmerge200.demorgan, label %.lr.ph131.split.us, label %.preheader6

.lr.ph131.split.us:                               ; preds = %cfftz.exit.i, %._crit_edge128.us
  %indvars.iv10.i129.us = phi i64 [ %indvars.iv.next11.i.us, %._crit_edge128.us ], [ 0, %cfftz.exit.i ]
  %180 = add nsw i64 %indvars.iv10.i129.us, %indvars.iv19133
  br label %181

181:                                              ; preds = %181, %.lr.ph131.split.us
  %indvars.iv8.i125.us = phi i64 [ 0, %.lr.ph131.split.us ], [ %indvars.iv.next9.i.us.3, %181 ]
  %182 = getelementptr inbounds [512 x [18 x %struct.dcomplex]], [512 x [18 x %struct.dcomplex]]* %12, i64 0, i64 %indvars.iv8.i125.us, i64 %indvars.iv10.i129.us
  %183 = getelementptr inbounds [256 x [256 x [512 x %struct.dcomplex]]], [256 x [256 x [512 x %struct.dcomplex]]]* @main.u1, i64 0, i64 %indvars.iv12.i136, i64 %180, i64 %indvars.iv8.i125.us
  %184 = bitcast %struct.dcomplex* %182 to <2 x i64>*
  %185 = load <2 x i64>, <2 x i64>* %184, align 16, !tbaa !8
  %186 = bitcast %struct.dcomplex* %183 to <2 x i64>*
  store <2 x i64> %185, <2 x i64>* %186, align 16, !tbaa !8
  %indvars.iv.next9.i.us = or i64 %indvars.iv8.i125.us, 1
  %187 = getelementptr inbounds [512 x [18 x %struct.dcomplex]], [512 x [18 x %struct.dcomplex]]* %12, i64 0, i64 %indvars.iv.next9.i.us, i64 %indvars.iv10.i129.us
  %188 = getelementptr inbounds [256 x [256 x [512 x %struct.dcomplex]]], [256 x [256 x [512 x %struct.dcomplex]]]* @main.u1, i64 0, i64 %indvars.iv12.i136, i64 %180, i64 %indvars.iv.next9.i.us
  %189 = bitcast %struct.dcomplex* %187 to <2 x i64>*
  %190 = load <2 x i64>, <2 x i64>* %189, align 16, !tbaa !8
  %191 = bitcast %struct.dcomplex* %188 to <2 x i64>*
  store <2 x i64> %190, <2 x i64>* %191, align 16, !tbaa !8
  %indvars.iv.next9.i.us.1 = or i64 %indvars.iv8.i125.us, 2
  %192 = getelementptr inbounds [512 x [18 x %struct.dcomplex]], [512 x [18 x %struct.dcomplex]]* %12, i64 0, i64 %indvars.iv.next9.i.us.1, i64 %indvars.iv10.i129.us
  %193 = getelementptr inbounds [256 x [256 x [512 x %struct.dcomplex]]], [256 x [256 x [512 x %struct.dcomplex]]]* @main.u1, i64 0, i64 %indvars.iv12.i136, i64 %180, i64 %indvars.iv.next9.i.us.1
  %194 = bitcast %struct.dcomplex* %192 to <2 x i64>*
  %195 = load <2 x i64>, <2 x i64>* %194, align 16, !tbaa !8
  %196 = bitcast %struct.dcomplex* %193 to <2 x i64>*
  store <2 x i64> %195, <2 x i64>* %196, align 16, !tbaa !8
  %indvars.iv.next9.i.us.2 = or i64 %indvars.iv8.i125.us, 3
  %197 = getelementptr inbounds [512 x [18 x %struct.dcomplex]], [512 x [18 x %struct.dcomplex]]* %12, i64 0, i64 %indvars.iv.next9.i.us.2, i64 %indvars.iv10.i129.us
  %198 = getelementptr inbounds [256 x [256 x [512 x %struct.dcomplex]]], [256 x [256 x [512 x %struct.dcomplex]]]* @main.u1, i64 0, i64 %indvars.iv12.i136, i64 %180, i64 %indvars.iv.next9.i.us.2
  %199 = bitcast %struct.dcomplex* %197 to <2 x i64>*
  %200 = load <2 x i64>, <2 x i64>* %199, align 16, !tbaa !8
  %201 = bitcast %struct.dcomplex* %198 to <2 x i64>*
  store <2 x i64> %200, <2 x i64>* %201, align 16, !tbaa !8
  %indvars.iv.next9.i.us.3 = add nuw nsw i64 %indvars.iv8.i125.us, 4
  %exitcond194.3 = icmp eq i64 %indvars.iv.next9.i.us.3, %945
  br i1 %exitcond194.3, label %._crit_edge128.us, label %181

._crit_edge128.us:                                ; preds = %181
  %indvars.iv.next11.i.us = add nuw nsw i64 %indvars.iv10.i129.us, 1
  %exitcond195 = icmp eq i64 %indvars.iv.next11.i.us, %946
  br i1 %exitcond195, label %.preheader6, label %.lr.ph131.split.us

.preheader6:                                      ; preds = %._crit_edge128.us, %cfftz.exit.i, %.preheader1.i.i.preheader.lr.ph
  %indvars.iv.next20 = add i64 %indvars.iv19133, %946
  %202 = icmp sgt i64 %indvars.iv.next20, %952
  br i1 %202, label %.preheader6._crit_edge, label %.preheader.i.preheader, !noelle.parallelizer.looporder !25

.preheader6._crit_edge:                           ; preds = %.preheader6, %.preheader6.preheader
  %indvars.iv.next13.i = add nuw nsw i64 %indvars.iv12.i136, 1
  %exitcond196 = icmp eq i64 %indvars.iv.next13.i, %943
  br i1 %exitcond196, label %cffts1.exit, label %.preheader6.preheader, !noelle.parallelizer.looporder !24

cffts1.exit:                                      ; preds = %.preheader6._crit_edge, %ilog2.exit.2
  call void @llvm.lifetime.end.p0i8(i64 147456, i8* nonnull %942) #10
  call void @llvm.lifetime.end.p0i8(i64 147456, i8* nonnull %941) #10
  %.b231 = load i1, i1* @dims.1.0, align 16
  %203 = select i1 %.b231, i32 512, i32 0
  br i1 %.b231, label %.preheader.i2.i6, label %ilog2.exit.i9

.preheader.i2.i6:                                 ; preds = %cffts1.exit, %.preheader.i2.i6
  %.01.i.i589 = phi i32 [ %204, %.preheader.i2.i6 ], [ 2, %cffts1.exit ]
  %204 = shl i32 %.01.i.i589, 1
  %205 = icmp slt i32 %204, %203
  br i1 %205, label %.preheader.i2.i6, label %ilog2.exit.i9

ilog2.exit.i9:                                    ; preds = %.preheader.i2.i6, %cffts1.exit
  %.b232 = load i1, i1* @dims.1.1, align 16
  %206 = select i1 %.b232, i32 256, i32 0
  br i1 %.b232, label %.preheader.i2.i6.1, label %ilog2.exit.i9.1

.preheader4.preheader.lr.ph:                      ; preds = %ilog2.exit.i9.2
  %207 = srem i32 %916, 2
  %208 = icmp ne i32 %207, 1
  %209 = icmp slt i32 %923, 0
  %210 = icmp sgt i32 %.pre.i, 0
  %not..b232 = xor i1 %.b232, true
  %brmerge146 = or i1 %208, %not..b232
  %211 = add nsw i64 %946, -1
  %brmerge212.demorgan = and i1 %210, %.b232
  %xtraiter252 = and i64 %946, 1
  %212 = icmp eq i64 %211, 0
  %unroll_iter254 = sub nsw i64 %946, %xtraiter252
  %lcmp.mod253 = icmp eq i64 %xtraiter252, 0
  %.not214 = xor i1 %210, true
  %brmerge220 = or i1 %brmerge146, %.not214
  %xtraiter256 = and i64 %946, 3
  %213 = icmp ult i64 %211, 3
  %unroll_iter259 = sub nsw i64 %946, %xtraiter256
  %lcmp.mod258 = icmp eq i64 %xtraiter256, 0
  %214 = shl nuw nsw i64 %xtraiter256, 4
  br label %.preheader4.preheader

.preheader4.preheader:                            ; preds = %.preheader4._crit_edge, %.preheader4.preheader.lr.ph
  %indvars.iv13.i86 = phi i64 [ 0, %.preheader4.preheader.lr.ph ], [ %indvars.iv.next14.i, %.preheader4._crit_edge ]
  br i1 %209, label %.preheader4._crit_edge, label %.preheader3.preheader, !noelle.parallelizer.looporder !46

.preheader3.preheader:                            ; preds = %.preheader4.preheader, %.preheader4
  %indvar135 = phi i64 [ %indvar.next136, %.preheader4 ], [ 0, %.preheader4.preheader ]
  %indvars.iv83 = phi i64 [ %indvars.iv.next, %.preheader4 ], [ 0, %.preheader4.preheader ]
  %215 = mul i64 %indvar135, %946
  br i1 %brmerge212.demorgan, label %.preheader1.i.preheader.us.preheader, label %.preheader3._crit_edge

.preheader1.i.preheader.us.preheader:             ; preds = %.preheader3.preheader
  br i1 %212, label %.preheader1.i.preheader.us.us.preheader, label %.preheader1.i.preheader.us

.preheader1.i.preheader.us.us.preheader:          ; preds = %.preheader1.i.preheader.us.preheader
  %sext.us.epil.us = shl i64 %indvars.iv83, 32
  %216 = ashr exact i64 %sext.us.epil.us, 32
  br label %.preheader1.i.preheader.us.us

.preheader1.i.preheader.us.us:                    ; preds = %.preheader1.i._crit_edge.us.us.1, %.preheader1.i.preheader.us.us.preheader
  %indvars.iv7.i53.us.us = phi i64 [ 0, %.preheader1.i.preheader.us.us.preheader ], [ %indvars.iv.next8.i.us.us.1, %.preheader1.i._crit_edge.us.us.1 ]
  br i1 %lcmp.mod253, label %.preheader1.i._crit_edge.us.us, label %.preheader1.i.us.epil.us

.preheader1.i.us.epil.us:                         ; preds = %.preheader1.i.preheader.us.us
  %217 = getelementptr inbounds [256 x [256 x [512 x %struct.dcomplex]]], [256 x [256 x [512 x %struct.dcomplex]]]* @main.u1, i64 0, i64 %indvars.iv13.i86, i64 %indvars.iv7.i53.us.us, i64 %216
  %218 = getelementptr inbounds [512 x [18 x %struct.dcomplex]], [512 x [18 x %struct.dcomplex]]* %10, i64 0, i64 %indvars.iv7.i53.us.us, i64 0
  %219 = bitcast %struct.dcomplex* %217 to <2 x i64>*
  %220 = load <2 x i64>, <2 x i64>* %219, align 16, !tbaa !8
  %221 = bitcast %struct.dcomplex* %218 to <2 x i64>*
  store <2 x i64> %220, <2 x i64>* %221, align 16, !tbaa !8
  br label %.preheader1.i._crit_edge.us.us

.preheader1.i._crit_edge.us.us:                   ; preds = %.preheader1.i.us.epil.us, %.preheader1.i.preheader.us.us
  %indvars.iv.next8.i.us.us = or i64 %indvars.iv7.i53.us.us, 1
  br i1 %lcmp.mod253, label %.preheader1.i._crit_edge.us.us.1, label %.preheader1.i.us.epil.us.1

.preheader1.i.preheader.us:                       ; preds = %.preheader1.i.preheader.us.preheader, %.preheader1.i._crit_edge.us
  %indvars.iv7.i53.us = phi i64 [ %indvars.iv.next8.i.us, %.preheader1.i._crit_edge.us ], [ 0, %.preheader1.i.preheader.us.preheader ]
  br label %.preheader1.i.us

.preheader1.i.us:                                 ; preds = %.preheader1.i.preheader.us, %.preheader1.i.us
  %indvars.iv.i1252.us = phi i64 [ %indvars.iv.next.i13.us.1, %.preheader1.i.us ], [ 0, %.preheader1.i.preheader.us ]
  %niter255 = phi i64 [ %niter255.nsub.1, %.preheader1.i.us ], [ %unroll_iter254, %.preheader1.i.preheader.us ]
  %222 = add i64 %indvars.iv.i1252.us, %indvars.iv83
  %sext.us = shl i64 %222, 32
  %223 = ashr exact i64 %sext.us, 32
  %224 = getelementptr inbounds [256 x [256 x [512 x %struct.dcomplex]]], [256 x [256 x [512 x %struct.dcomplex]]]* @main.u1, i64 0, i64 %indvars.iv13.i86, i64 %indvars.iv7.i53.us, i64 %223
  %225 = getelementptr inbounds [512 x [18 x %struct.dcomplex]], [512 x [18 x %struct.dcomplex]]* %10, i64 0, i64 %indvars.iv7.i53.us, i64 %indvars.iv.i1252.us
  %226 = bitcast %struct.dcomplex* %224 to <2 x i64>*
  %227 = load <2 x i64>, <2 x i64>* %226, align 16, !tbaa !8
  %228 = bitcast %struct.dcomplex* %225 to <2 x i64>*
  store <2 x i64> %227, <2 x i64>* %228, align 16, !tbaa !8
  %indvars.iv.next.i13.us = or i64 %indvars.iv.i1252.us, 1
  %229 = add i64 %indvars.iv.next.i13.us, %indvars.iv83
  %sext.us.1 = shl i64 %229, 32
  %230 = ashr exact i64 %sext.us.1, 32
  %231 = getelementptr inbounds [256 x [256 x [512 x %struct.dcomplex]]], [256 x [256 x [512 x %struct.dcomplex]]]* @main.u1, i64 0, i64 %indvars.iv13.i86, i64 %indvars.iv7.i53.us, i64 %230
  %232 = getelementptr inbounds [512 x [18 x %struct.dcomplex]], [512 x [18 x %struct.dcomplex]]* %10, i64 0, i64 %indvars.iv7.i53.us, i64 %indvars.iv.next.i13.us
  %233 = bitcast %struct.dcomplex* %231 to <2 x i64>*
  %234 = load <2 x i64>, <2 x i64>* %233, align 16, !tbaa !8
  %235 = bitcast %struct.dcomplex* %232 to <2 x i64>*
  store <2 x i64> %234, <2 x i64>* %235, align 16, !tbaa !8
  %indvars.iv.next.i13.us.1 = add nuw nsw i64 %indvars.iv.i1252.us, 2
  %niter255.nsub.1 = add i64 %niter255, -2
  %niter255.ncmp.1 = icmp eq i64 %niter255.nsub.1, 0
  br i1 %niter255.ncmp.1, label %.preheader1.i._crit_edge.us.unr-lcssa, label %.preheader1.i.us

.preheader1.i._crit_edge.us.unr-lcssa:            ; preds = %.preheader1.i.us
  br i1 %lcmp.mod253, label %.preheader1.i._crit_edge.us, label %.preheader1.i.us.epil

.preheader1.i.us.epil:                            ; preds = %.preheader1.i._crit_edge.us.unr-lcssa
  %236 = add i64 %indvars.iv.next.i13.us.1, %indvars.iv83
  %sext.us.epil = shl i64 %236, 32
  %237 = ashr exact i64 %sext.us.epil, 32
  %238 = getelementptr inbounds [256 x [256 x [512 x %struct.dcomplex]]], [256 x [256 x [512 x %struct.dcomplex]]]* @main.u1, i64 0, i64 %indvars.iv13.i86, i64 %indvars.iv7.i53.us, i64 %237
  %239 = getelementptr inbounds [512 x [18 x %struct.dcomplex]], [512 x [18 x %struct.dcomplex]]* %10, i64 0, i64 %indvars.iv7.i53.us, i64 %indvars.iv.next.i13.us.1
  %240 = bitcast %struct.dcomplex* %238 to <2 x i64>*
  %241 = load <2 x i64>, <2 x i64>* %240, align 16, !tbaa !8
  %242 = bitcast %struct.dcomplex* %239 to <2 x i64>*
  store <2 x i64> %241, <2 x i64>* %242, align 16, !tbaa !8
  br label %.preheader1.i._crit_edge.us

.preheader1.i._crit_edge.us:                      ; preds = %.preheader1.i._crit_edge.us.unr-lcssa, %.preheader1.i.us.epil
  %indvars.iv.next8.i.us = add nuw nsw i64 %indvars.iv7.i53.us, 1
  %exitcond163 = icmp eq i64 %indvars.iv.next8.i.us, %924
  br i1 %exitcond163, label %.preheader3._crit_edge, label %.preheader1.i.preheader.us

.preheader3._crit_edge:                           ; preds = %.preheader1.i._crit_edge.us, %.preheader1.i._crit_edge.us.us.1, %.preheader3.preheader
  br i1 %925, label %LeafBlock7._crit_edge.._crit_edge_crit_edge.i.i15, label %.lr.ph75

LeafBlock7._crit_edge.._crit_edge_crit_edge.i.i15: ; preds = %.preheader3._crit_edge
  %243 = tail call i32 (i8*, ...) @printf(i8* getelementptr inbounds ([99 x i8], [99 x i8]* @.str.13, i64 0, i64 0), i32 1, i32 %916, i32 %948) #10
  tail call void @exit(i32 1) #30
  unreachable

.lr.ph75:                                         ; preds = %.preheader3._crit_edge, %.us-lcssa.us.loopexit.i.i
  %.0.i.i1774 = phi i32 [ %348, %.us-lcssa.us.loopexit.i.i ], [ 1, %.preheader3._crit_edge ]
  %244 = icmp eq i32 %.0.i.i1774, 1
  %245 = add nsw i32 %.0.i.i1774, -2
  %246 = shl i32 2, %245
  %.02.i.i.i20 = select i1 %244, i32 1, i32 %246
  %247 = sub nsw i32 %916, %.0.i.i1774
  %248 = icmp eq i32 %247, 0
  %249 = add nsw i32 %247, -1
  %250 = shl i32 2, %249
  %.03.i.i.i21 = select i1 %248, i32 1, i32 %250
  %251 = shl nsw i32 %.02.i.i.i20, 1
  %252 = sext i32 %.02.i.i.i20 to i64
  %253 = sext i32 %.03.i.i.i21 to i64
  %254 = sext i32 %251 to i64
  %255 = icmp slt i32 %.03.i.i.i21, 1
  %256 = icmp slt i32 %.02.i.i.i20, 1
  %brmerge215 = or i1 %256, %.not214
  %or.cond174 = or i1 %255, %brmerge215
  br i1 %or.cond174, label %.us-lcssa.us.loopexit.i.i.i29, label %.lr.ph62.split

.lr.ph62.split:                                   ; preds = %.lr.ph75, %.split.us.i.i.i23
  %indvars.iv10.i.i.i2260 = phi i64 [ %indvars.iv.next11.i.i.i25, %.split.us.i.i.i23 ], [ 0, %.lr.ph75 ]
  %257 = mul nsw i64 %indvars.iv10.i.i.i2260, %252
  %258 = mul nsw i64 %indvars.iv10.i.i.i2260, %254
  %259 = add nsw i64 %indvars.iv10.i.i.i2260, %253
  %260 = getelementptr inbounds [512 x %struct.dcomplex], [512 x %struct.dcomplex]* @u, i64 0, i64 %259, i32 0
  %261 = bitcast double* %260 to <2 x double>*
  %262 = load <2 x double>, <2 x double>* %261, align 16, !tbaa !8
  %263 = shufflevector <2 x double> %262, <2 x double> undef, <2 x i32> <i32 1, i32 0>
  br label %.lr.ph58.split.us

.lr.ph58.split.us:                                ; preds = %.lr.ph62.split, %._crit_edge.us
  %indvars.iv8.i.i.i2456.us = phi i64 [ %indvars.iv.next9.i.i.i27.us, %._crit_edge.us ], [ 0, %.lr.ph62.split ]
  %264 = add nsw i64 %indvars.iv8.i.i.i2456.us, %257
  %265 = add nsw i64 %264, %927
  %266 = add nsw i64 %indvars.iv8.i.i.i2456.us, %258
  %267 = add nsw i64 %266, %252
  br label %268

268:                                              ; preds = %268, %.lr.ph58.split.us
  %indvars.iv.i.i.i2654.us = phi i64 [ 0, %.lr.ph58.split.us ], [ %indvars.iv.next.i.i.i28.us, %268 ]
  %269 = getelementptr inbounds [512 x [18 x %struct.dcomplex]], [512 x [18 x %struct.dcomplex]]* %10, i64 0, i64 %264, i64 %indvars.iv.i.i.i2654.us, i32 0
  %270 = bitcast double* %269 to <2 x double>*
  %271 = load <2 x double>, <2 x double>* %270, align 16, !tbaa !8
  %272 = getelementptr inbounds [512 x [18 x %struct.dcomplex]], [512 x [18 x %struct.dcomplex]]* %10, i64 0, i64 %265, i64 %indvars.iv.i.i.i2654.us, i32 0
  %273 = bitcast double* %272 to <2 x double>*
  %274 = load <2 x double>, <2 x double>* %273, align 16, !tbaa !8
  %275 = getelementptr inbounds [512 x [18 x %struct.dcomplex]], [512 x [18 x %struct.dcomplex]]* %11, i64 0, i64 %266, i64 %indvars.iv.i.i.i2654.us, i32 0
  %276 = fadd <2 x double> %271, %274
  %277 = bitcast double* %275 to <2 x double>*
  store <2 x double> %276, <2 x double>* %277, align 16, !tbaa !8
  %278 = extractelement <2 x double> %271, i32 0
  %279 = extractelement <2 x double> %274, i32 0
  %280 = fsub double %278, %279
  %281 = extractelement <2 x double> %271, i32 1
  %282 = extractelement <2 x double> %274, i32 1
  %283 = fsub double %281, %282
  %284 = getelementptr inbounds [512 x [18 x %struct.dcomplex]], [512 x [18 x %struct.dcomplex]]* %11, i64 0, i64 %267, i64 %indvars.iv.i.i.i2654.us, i32 0
  %285 = insertelement <2 x double> undef, double %283, i32 0
  %286 = shufflevector <2 x double> %285, <2 x double> undef, <2 x i32> zeroinitializer
  %287 = fmul <2 x double> %263, %286
  %288 = insertelement <2 x double> undef, double %280, i32 0
  %289 = shufflevector <2 x double> %288, <2 x double> undef, <2 x i32> zeroinitializer
  %290 = fmul <2 x double> %262, %289
  %291 = fsub <2 x double> %290, %287
  %292 = fadd <2 x double> %290, %287
  %293 = shufflevector <2 x double> %291, <2 x double> %292, <2 x i32> <i32 0, i32 3>
  %294 = bitcast double* %284 to <2 x double>*
  store <2 x double> %293, <2 x double>* %294, align 16, !tbaa !8
  %indvars.iv.next.i.i.i28.us = add nuw nsw i64 %indvars.iv.i.i.i2654.us, 1
  %exitcond165 = icmp eq i64 %indvars.iv.next.i.i.i28.us, %946
  br i1 %exitcond165, label %._crit_edge.us, label %268

._crit_edge.us:                                   ; preds = %268
  %indvars.iv.next9.i.i.i27.us = add nuw nsw i64 %indvars.iv8.i.i.i2456.us, 1
  %exitcond166 = icmp eq i64 %indvars.iv.next9.i.i.i27.us, %252
  br i1 %exitcond166, label %.split.us.i.i.i23, label %.lr.ph58.split.us

.split.us.i.i.i23:                                ; preds = %._crit_edge.us
  %indvars.iv.next11.i.i.i25 = add nuw nsw i64 %indvars.iv10.i.i.i2260, 1
  %exitcond167 = icmp eq i64 %indvars.iv.next11.i.i.i25, %253
  br i1 %exitcond167, label %.us-lcssa.us.loopexit.i.i.i29, label %.lr.ph62.split

.us-lcssa.us.loopexit.i.i.i29:                    ; preds = %.split.us.i.i.i23, %.lr.ph75
  %295 = icmp eq i32 %916, %.0.i.i1774
  br i1 %295, label %.loopexit.i.i32, label %296

296:                                              ; preds = %.us-lcssa.us.loopexit.i.i.i29
  %297 = add nsw i32 %.0.i.i1774, -1
  %298 = shl i32 2, %297
  %299 = xor i32 %.0.i.i1774, -1
  %300 = add i32 %916, %299
  %301 = icmp eq i32 %300, 0
  %302 = add nsw i32 %300, -1
  %303 = shl i32 2, %302
  %.03.i.i31 = select i1 %301, i32 1, i32 %303
  %304 = shl nsw i32 %298, 1
  %305 = sext i32 %298 to i64
  %306 = sext i32 %.03.i.i31 to i64
  %307 = sext i32 %304 to i64
  %308 = icmp slt i32 %.03.i.i31, 1
  %309 = icmp slt i32 %298, 1
  %brmerge218 = or i1 %309, %.not214
  %or.cond175 = or i1 %308, %brmerge218
  br i1 %or.cond175, label %.us-lcssa.us.loopexit.i.i, label %.lr.ph73.split

.lr.ph73.split:                                   ; preds = %296, %.split.us.i.i
  %indvars.iv10.i.i71 = phi i64 [ %indvars.iv.next11.i.i, %.split.us.i.i ], [ 0, %296 ]
  %310 = mul nsw i64 %indvars.iv10.i.i71, %305
  %311 = mul nsw i64 %indvars.iv10.i.i71, %307
  %312 = add nsw i64 %indvars.iv10.i.i71, %306
  %313 = getelementptr inbounds [512 x %struct.dcomplex], [512 x %struct.dcomplex]* @u, i64 0, i64 %312, i32 0
  %314 = bitcast double* %313 to <2 x double>*
  %315 = load <2 x double>, <2 x double>* %314, align 16, !tbaa !8
  %316 = shufflevector <2 x double> %315, <2 x double> undef, <2 x i32> <i32 1, i32 0>
  br label %.lr.ph69.split.us

.lr.ph69.split.us:                                ; preds = %.lr.ph73.split, %._crit_edge66.us
  %indvars.iv8.i.i67.us = phi i64 [ %indvars.iv.next9.i.i.us, %._crit_edge66.us ], [ 0, %.lr.ph73.split ]
  %317 = add nsw i64 %indvars.iv8.i.i67.us, %310
  %318 = add nsw i64 %317, %927
  %319 = add nsw i64 %indvars.iv8.i.i67.us, %311
  %320 = add nsw i64 %319, %305
  br label %321

